
G474_AC_switch.elf:     file format elf32-littlearm

Sections:
Idx Name          Size      VMA       LMA       File off  Algn
  0 .isr_vector   000001d8  08000000  08000000  00010000  2**0
                  CONTENTS, ALLOC, LOAD, READONLY, DATA
  1 .text         0000035c  080001d8  080001d8  000101d8  2**2
                  CONTENTS, ALLOC, LOAD, READONLY, CODE
  2 .rodata       00000000  08000534  08000534  000203fc  2**0
                  CONTENTS, ALLOC, LOAD, DATA
  3 .ARM.extab    00000000  08000534  08000534  000203fc  2**0
                  CONTENTS
  4 .ARM          00000000  08000534  08000534  000203fc  2**0
                  CONTENTS
  5 .preinit_array 00000000  08000534  08000534  000203fc  2**0
                  CONTENTS, ALLOC, LOAD, DATA
  6 .init_array   00000004  08000534  08000534  00010534  2**2
                  CONTENTS, ALLOC, LOAD, DATA
  7 .fini_array   00000004  08000538  08000538  00010538  2**2
                  CONTENTS, ALLOC, LOAD, DATA
  8 .data         000003fc  20000000  0800053c  00020000  2**2
                  CONTENTS, ALLOC, LOAD, DATA
  9 .bss          00000028  200003fc  08000938  000203fc  2**2
                  ALLOC
 10 ._user_heap_stack 00000604  20000424  08000938  00020424  2**0
                  ALLOC
 11 .ARM.attributes 00000030  00000000  00000000  000203fc  2**0
                  CONTENTS, READONLY
 12 .debug_info   00000d34  00000000  00000000  0002042c  2**0
                  CONTENTS, READONLY, DEBUGGING, OCTETS
 13 .debug_abbrev 00000290  00000000  00000000  00021160  2**0
                  CONTENTS, READONLY, DEBUGGING, OCTETS
 14 .debug_aranges 00000098  00000000  00000000  000213f0  2**3
                  CONTENTS, READONLY, DEBUGGING, OCTETS
 15 .debug_ranges 00000070  00000000  00000000  00021488  2**3
                  CONTENTS, READONLY, DEBUGGING, OCTETS
 16 .debug_macro  0001b652  00000000  00000000  000214f8  2**0
                  CONTENTS, READONLY, DEBUGGING, OCTETS
 17 .debug_line   00000c4f  00000000  00000000  0003cb4a  2**0
                  CONTENTS, READONLY, DEBUGGING, OCTETS
 18 .debug_str    0009f6aa  00000000  00000000  0003d799  2**0
                  CONTENTS, READONLY, DEBUGGING, OCTETS
 19 .comment      00000050  00000000  00000000  000dce43  2**0
                  CONTENTS, READONLY
 20 .debug_frame  00000158  00000000  00000000  000dce94  2**2
                  CONTENTS, READONLY, DEBUGGING, OCTETS

Disassembly of section .text:

080001d8 <__do_global_dtors_aux>:
 80001d8:	b510      	push	{r4, lr}
 80001da:	4c05      	ldr	r4, [pc, #20]	; (80001f0 <__do_global_dtors_aux+0x18>)
 80001dc:	7823      	ldrb	r3, [r4, #0]
 80001de:	b933      	cbnz	r3, 80001ee <__do_global_dtors_aux+0x16>
 80001e0:	4b04      	ldr	r3, [pc, #16]	; (80001f4 <__do_global_dtors_aux+0x1c>)
 80001e2:	b113      	cbz	r3, 80001ea <__do_global_dtors_aux+0x12>
 80001e4:	4804      	ldr	r0, [pc, #16]	; (80001f8 <__do_global_dtors_aux+0x20>)
 80001e6:	f3af 8000 	nop.w
 80001ea:	2301      	movs	r3, #1
 80001ec:	7023      	strb	r3, [r4, #0]
 80001ee:	bd10      	pop	{r4, pc}
 80001f0:	200003fc 	.word	0x200003fc
 80001f4:	00000000 	.word	0x00000000
 80001f8:	0800051c 	.word	0x0800051c

080001fc <frame_dummy>:
 80001fc:	b508      	push	{r3, lr}
 80001fe:	4b03      	ldr	r3, [pc, #12]	; (800020c <frame_dummy+0x10>)
 8000200:	b11b      	cbz	r3, 800020a <frame_dummy+0xe>
 8000202:	4903      	ldr	r1, [pc, #12]	; (8000210 <frame_dummy+0x14>)
 8000204:	4803      	ldr	r0, [pc, #12]	; (8000214 <frame_dummy+0x18>)
 8000206:	f3af 8000 	nop.w
 800020a:	bd08      	pop	{r3, pc}
 800020c:	00000000 	.word	0x00000000
 8000210:	20000400 	.word	0x20000400
 8000214:	0800051c 	.word	0x0800051c

08000218 <SysTick_Handler>:

// TODO: SysTick for delays, Timer for DAC
volatile uint16_t ms_ticks = 0;

// when SysTick counts down zero, increase DAC data
void SysTick_Handler() {
 8000218:	b480      	push	{r7}
 800021a:	af00      	add	r7, sp, #0
	if (SysTick->CTRL & SysTick_CTRL_COUNTFLAG_Msk) {
 800021c:	4b0d      	ldr	r3, [pc, #52]	; (8000254 <SysTick_Handler+0x3c>)
 800021e:	681b      	ldr	r3, [r3, #0]
 8000220:	f403 3380 	and.w	r3, r3, #65536	; 0x10000
 8000224:	2b00      	cmp	r3, #0
 8000226:	d00f      	beq.n	8000248 <SysTick_Handler+0x30>
		time = (time + 1) & 0xFF; // чтоб не делать %
 8000228:	4b0b      	ldr	r3, [pc, #44]	; (8000258 <SysTick_Handler+0x40>)
 800022a:	681b      	ldr	r3, [r3, #0]
 800022c:	3301      	adds	r3, #1
 800022e:	b2db      	uxtb	r3, r3
 8000230:	4a09      	ldr	r2, [pc, #36]	; (8000258 <SysTick_Handler+0x40>)
 8000232:	6013      	str	r3, [r2, #0]
		data = SINE_LUT[time];
 8000234:	4b08      	ldr	r3, [pc, #32]	; (8000258 <SysTick_Handler+0x40>)
 8000236:	681b      	ldr	r3, [r3, #0]
 8000238:	4a08      	ldr	r2, [pc, #32]	; (800025c <SysTick_Handler+0x44>)
 800023a:	f852 3023 	ldr.w	r3, [r2, r3, lsl #2]
 800023e:	4a08      	ldr	r2, [pc, #32]	; (8000260 <SysTick_Handler+0x48>)
 8000240:	6013      	str	r3, [r2, #0]
		data_changed = 1;
 8000242:	4b08      	ldr	r3, [pc, #32]	; (8000264 <SysTick_Handler+0x4c>)
 8000244:	2201      	movs	r2, #1
 8000246:	701a      	strb	r2, [r3, #0]
	}
}
 8000248:	bf00      	nop
 800024a:	46bd      	mov	sp, r7
 800024c:	f85d 7b04 	ldr.w	r7, [sp], #4
 8000250:	4770      	bx	lr
 8000252:	bf00      	nop
 8000254:	e000e010 	.word	0xe000e010
 8000258:	2000041c 	.word	0x2000041c
 800025c:	20000000 	.word	0x20000000
 8000260:	20000418 	.word	0x20000418
 8000264:	20000420 	.word	0x20000420

08000268 <SysTick_setup>:

void SysTick_setup() {
 8000268:	b480      	push	{r7}
 800026a:	af00      	add	r7, sp, #0
  // 1. Program reload value.
  SysTick->LOAD = (uint32_t)(SYSCLK_FREQ / SysTick_FREQ - 1);
 800026c:	4b07      	ldr	r3, [pc, #28]	; (800028c <SysTick_setup+0x24>)
 800026e:	f242 720f 	movw	r2, #9999	; 0x270f
 8000272:	605a      	str	r2, [r3, #4]
  // 2. Clear current value.
  SysTick->VAL = 0;
 8000274:	4b05      	ldr	r3, [pc, #20]	; (800028c <SysTick_setup+0x24>)
 8000276:	2200      	movs	r2, #0
 8000278:	609a      	str	r2, [r3, #8]
  // 3. Program Control and Status register.
  // internal clock, exception when counts down zero, enable
  SysTick->CTRL = SysTick_CTRL_CLKSOURCE_Msk |
 800027a:	4b04      	ldr	r3, [pc, #16]	; (800028c <SysTick_setup+0x24>)
 800027c:	2207      	movs	r2, #7
 800027e:	601a      	str	r2, [r3, #0]
		  SysTick_CTRL_TICKINT_Msk |
		  SysTick_CTRL_ENABLE_Msk;
  // no need in NVIC setup!
}
 8000280:	bf00      	nop
 8000282:	46bd      	mov	sp, r7
 8000284:	f85d 7b04 	ldr.w	r7, [sp], #4
 8000288:	4770      	bx	lr
 800028a:	bf00      	nop
 800028c:	e000e010 	.word	0xe000e010

08000290 <SPI1_Send>:
	// 7. Запустить таймер
	// Timer enable
	TIM16->CR1 |= TIM_CR1_CEN;
}

void SPI1_Send(uint16_t data) {
 8000290:	b480      	push	{r7}
 8000292:	b085      	sub	sp, #20
 8000294:	af00      	add	r7, sp, #0
 8000296:	4603      	mov	r3, r0
 8000298:	80fb      	strh	r3, [r7, #6]
	// SPI enable -- NSS goes from 1 to 0
	CS_LOW();
 800029a:	f04f 4390 	mov.w	r3, #1207959552	; 0x48000000
 800029e:	f44f 1280 	mov.w	r2, #1048576	; 0x100000
 80002a2:	619a      	str	r2, [r3, #24]
	while (!(SPI1->SR & SPI_SR_TXE));
 80002a4:	bf00      	nop
 80002a6:	4b0f      	ldr	r3, [pc, #60]	; (80002e4 <SPI1_Send+0x54>)
 80002a8:	689b      	ldr	r3, [r3, #8]
 80002aa:	f003 0302 	and.w	r3, r3, #2
 80002ae:	2b00      	cmp	r3, #0
 80002b0:	d0f9      	beq.n	80002a6 <SPI1_Send+0x16>
	SPI1->DR = data;
 80002b2:	4a0c      	ldr	r2, [pc, #48]	; (80002e4 <SPI1_Send+0x54>)
 80002b4:	88fb      	ldrh	r3, [r7, #6]
 80002b6:	60d3      	str	r3, [r2, #12]
	while (SPI1->SR & SPI_SR_BSY);
 80002b8:	bf00      	nop
 80002ba:	4b0a      	ldr	r3, [pc, #40]	; (80002e4 <SPI1_Send+0x54>)
 80002bc:	689b      	ldr	r3, [r3, #8]
 80002be:	f003 0380 	and.w	r3, r3, #128	; 0x80
 80002c2:	2b00      	cmp	r3, #0
 80002c4:	d1f9      	bne.n	80002ba <SPI1_Send+0x2a>
	volatile uint16_t dummy = SPI1->DR; // ← сбросить RXNE/OVR
 80002c6:	4b07      	ldr	r3, [pc, #28]	; (80002e4 <SPI1_Send+0x54>)
 80002c8:	68db      	ldr	r3, [r3, #12]
 80002ca:	b29b      	uxth	r3, r3
 80002cc:	81fb      	strh	r3, [r7, #14]
	CS_HIGH();
 80002ce:	f04f 4390 	mov.w	r3, #1207959552	; 0x48000000
 80002d2:	2210      	movs	r2, #16
 80002d4:	619a      	str	r2, [r3, #24]
}
 80002d6:	bf00      	nop
 80002d8:	3714      	adds	r7, #20
 80002da:	46bd      	mov	sp, r7
 80002dc:	f85d 7b04 	ldr.w	r7, [sp], #4
 80002e0:	4770      	bx	lr
 80002e2:	bf00      	nop
 80002e4:	40013000 	.word	0x40013000

080002e8 <SPI1_Setup>:

// SPI1 for external DAC
// SPI1 is on APB2 bus
void SPI1_Setup() {
 80002e8:	b480      	push	{r7}
 80002ea:	af00      	add	r7, sp, #0
	RCC->AHB2ENR |= RCC_AHB2ENR_GPIOAEN;
 80002ec:	4b4c      	ldr	r3, [pc, #304]	; (8000420 <SPI1_Setup+0x138>)
 80002ee:	6cdb      	ldr	r3, [r3, #76]	; 0x4c
 80002f0:	4a4b      	ldr	r2, [pc, #300]	; (8000420 <SPI1_Setup+0x138>)
 80002f2:	f043 0301 	orr.w	r3, r3, #1
 80002f6:	64d3      	str	r3, [r2, #76]	; 0x4c
	// SPI mode setup
	// PA4 - NSS, AF5, MODER=10
	// PA5 - CLK, AF5
	// PA7 - MOSI, AF5
	GPIOA->MODER &= ~(GPIO_MODER_MODE4);
 80002f8:	f04f 4390 	mov.w	r3, #1207959552	; 0x48000000
 80002fc:	681b      	ldr	r3, [r3, #0]
 80002fe:	f04f 4290 	mov.w	r2, #1207959552	; 0x48000000
 8000302:	f423 7340 	bic.w	r3, r3, #768	; 0x300
 8000306:	6013      	str	r3, [r2, #0]
	GPIOA->MODER |= GPIO_MODER_MODE4_1;
 8000308:	f04f 4390 	mov.w	r3, #1207959552	; 0x48000000
 800030c:	681b      	ldr	r3, [r3, #0]
 800030e:	f04f 4290 	mov.w	r2, #1207959552	; 0x48000000
 8000312:	f443 7300 	orr.w	r3, r3, #512	; 0x200
 8000316:	6013      	str	r3, [r2, #0]
	GPIOA->MODER &= ~(GPIO_MODER_MODE5);
 8000318:	f04f 4390 	mov.w	r3, #1207959552	; 0x48000000
 800031c:	681b      	ldr	r3, [r3, #0]
 800031e:	f04f 4290 	mov.w	r2, #1207959552	; 0x48000000
 8000322:	f423 6340 	bic.w	r3, r3, #3072	; 0xc00
 8000326:	6013      	str	r3, [r2, #0]
	GPIOA->MODER |= GPIO_MODER_MODE5_1;
 8000328:	f04f 4390 	mov.w	r3, #1207959552	; 0x48000000
 800032c:	681b      	ldr	r3, [r3, #0]
 800032e:	f04f 4290 	mov.w	r2, #1207959552	; 0x48000000
 8000332:	f443 6300 	orr.w	r3, r3, #2048	; 0x800
 8000336:	6013      	str	r3, [r2, #0]
	GPIOA->MODER &= ~(GPIO_MODER_MODE7);
 8000338:	f04f 4390 	mov.w	r3, #1207959552	; 0x48000000
 800033c:	681b      	ldr	r3, [r3, #0]
 800033e:	f04f 4290 	mov.w	r2, #1207959552	; 0x48000000
 8000342:	f423 4340 	bic.w	r3, r3, #49152	; 0xc000
 8000346:	6013      	str	r3, [r2, #0]
	GPIOA->MODER |= GPIO_MODER_MODE7_1;
 8000348:	f04f 4390 	mov.w	r3, #1207959552	; 0x48000000
 800034c:	681b      	ldr	r3, [r3, #0]
 800034e:	f04f 4290 	mov.w	r2, #1207959552	; 0x48000000
 8000352:	f443 4300 	orr.w	r3, r3, #32768	; 0x8000
 8000356:	6013      	str	r3, [r2, #0]
	// SPI alternate function setup
	GPIOA->AFR[0] |= GPIO_AFRL_AFRL4_AF5;
 8000358:	f04f 4390 	mov.w	r3, #1207959552	; 0x48000000
 800035c:	6a1b      	ldr	r3, [r3, #32]
 800035e:	f04f 4290 	mov.w	r2, #1207959552	; 0x48000000
 8000362:	f443 23a0 	orr.w	r3, r3, #327680	; 0x50000
 8000366:	6213      	str	r3, [r2, #32]
	GPIOA->AFR[0] |= GPIO_AFRL_AFRL5_AF5;
 8000368:	f04f 4390 	mov.w	r3, #1207959552	; 0x48000000
 800036c:	6a1b      	ldr	r3, [r3, #32]
 800036e:	f04f 4290 	mov.w	r2, #1207959552	; 0x48000000
 8000372:	f443 03a0 	orr.w	r3, r3, #5242880	; 0x500000
 8000376:	6213      	str	r3, [r2, #32]
	GPIOA->AFR[0] |= GPIO_AFRL_AFRL7_AF5;
 8000378:	f04f 4390 	mov.w	r3, #1207959552	; 0x48000000
 800037c:	6a1b      	ldr	r3, [r3, #32]
 800037e:	f04f 4290 	mov.w	r2, #1207959552	; 0x48000000
 8000382:	f043 43a0 	orr.w	r3, r3, #1342177280	; 0x50000000
 8000386:	6213      	str	r3, [r2, #32]
	// SPI setup:
	RCC->APB2ENR |= RCC_APB2ENR_SPI1EN;
 8000388:	4b25      	ldr	r3, [pc, #148]	; (8000420 <SPI1_Setup+0x138>)
 800038a:	6e1b      	ldr	r3, [r3, #96]	; 0x60
 800038c:	4a24      	ldr	r2, [pc, #144]	; (8000420 <SPI1_Setup+0x138>)
 800038e:	f443 5380 	orr.w	r3, r3, #4096	; 0x1000
 8000392:	6613      	str	r3, [r2, #96]	; 0x60
	SPI1->CR1 &= ~SPI_CR1_SPE;
 8000394:	4b23      	ldr	r3, [pc, #140]	; (8000424 <SPI1_Setup+0x13c>)
 8000396:	681b      	ldr	r3, [r3, #0]
 8000398:	4a22      	ldr	r2, [pc, #136]	; (8000424 <SPI1_Setup+0x13c>)
 800039a:	f023 0340 	bic.w	r3, r3, #64	; 0x40
 800039e:	6013      	str	r3, [r2, #0]
	// dataframe format: 16 bit
	SPI1->CR2 |= SPI_CR2_DS_3 | SPI_CR2_DS_2 | SPI_CR2_DS_1 | SPI_CR2_DS_0;
 80003a0:	4b20      	ldr	r3, [pc, #128]	; (8000424 <SPI1_Setup+0x13c>)
 80003a2:	685b      	ldr	r3, [r3, #4]
 80003a4:	4a1f      	ldr	r2, [pc, #124]	; (8000424 <SPI1_Setup+0x13c>)
 80003a6:	f443 6370 	orr.w	r3, r3, #3840	; 0xf00
 80003aa:	6053      	str	r3, [r2, #4]
	SPI1->CR2 |= SPI_CR2_FRXTH; // FIFO threshold = 16-bit
 80003ac:	4b1d      	ldr	r3, [pc, #116]	; (8000424 <SPI1_Setup+0x13c>)
 80003ae:	685b      	ldr	r3, [r3, #4]
 80003b0:	4a1c      	ldr	r2, [pc, #112]	; (8000424 <SPI1_Setup+0x13c>)
 80003b2:	f443 5380 	orr.w	r3, r3, #4096	; 0x1000
 80003b6:	6053      	str	r3, [r2, #4]
	// master selection
	SPI1->CR1 |= SPI_CR1_MSTR;
 80003b8:	4b1a      	ldr	r3, [pc, #104]	; (8000424 <SPI1_Setup+0x13c>)
 80003ba:	681b      	ldr	r3, [r3, #0]
 80003bc:	4a19      	ldr	r2, [pc, #100]	; (8000424 <SPI1_Setup+0x13c>)
 80003be:	f043 0304 	orr.w	r3, r3, #4
 80003c2:	6013      	str	r3, [r2, #0]
	SPI1->CR1 |= SPI_CR1_CPHA;  // falling edge
 80003c4:	4b17      	ldr	r3, [pc, #92]	; (8000424 <SPI1_Setup+0x13c>)
 80003c6:	681b      	ldr	r3, [r3, #0]
 80003c8:	4a16      	ldr	r2, [pc, #88]	; (8000424 <SPI1_Setup+0x13c>)
 80003ca:	f043 0301 	orr.w	r3, r3, #1
 80003ce:	6013      	str	r3, [r2, #0]
	// NSS software (программный)
	SPI1->CR1 |= SPI_CR1_SSM;
 80003d0:	4b14      	ldr	r3, [pc, #80]	; (8000424 <SPI1_Setup+0x13c>)
 80003d2:	681b      	ldr	r3, [r3, #0]
 80003d4:	4a13      	ldr	r2, [pc, #76]	; (8000424 <SPI1_Setup+0x13c>)
 80003d6:	f443 7300 	orr.w	r3, r3, #512	; 0x200
 80003da:	6013      	str	r3, [r2, #0]
	SPI1->CR1 |= SPI_CR1_SSI;
 80003dc:	4b11      	ldr	r3, [pc, #68]	; (8000424 <SPI1_Setup+0x13c>)
 80003de:	681b      	ldr	r3, [r3, #0]
 80003e0:	4a10      	ldr	r2, [pc, #64]	; (8000424 <SPI1_Setup+0x13c>)
 80003e2:	f443 7380 	orr.w	r3, r3, #256	; 0x100
 80003e6:	6013      	str	r3, [r2, #0]
	// NSS hardware (аппаратный)
	//SPI1->CR2 |= SPI_CR2_SSOE;
	// CS
	GPIOA->MODER &= ~GPIO_MODER_MODE4;
 80003e8:	f04f 4390 	mov.w	r3, #1207959552	; 0x48000000
 80003ec:	681b      	ldr	r3, [r3, #0]
 80003ee:	f04f 4290 	mov.w	r2, #1207959552	; 0x48000000
 80003f2:	f423 7340 	bic.w	r3, r3, #768	; 0x300
 80003f6:	6013      	str	r3, [r2, #0]
	GPIOA->MODER |= GPIO_MODER_MODE4_0;
 80003f8:	f04f 4390 	mov.w	r3, #1207959552	; 0x48000000
 80003fc:	681b      	ldr	r3, [r3, #0]
 80003fe:	f04f 4290 	mov.w	r2, #1207959552	; 0x48000000
 8000402:	f443 7380 	orr.w	r3, r3, #256	; 0x100
 8000406:	6013      	str	r3, [r2, #0]
	// SPI enable
	SPI1->CR1 |= SPI_CR1_SPE;
 8000408:	4b06      	ldr	r3, [pc, #24]	; (8000424 <SPI1_Setup+0x13c>)
 800040a:	681b      	ldr	r3, [r3, #0]
 800040c:	4a05      	ldr	r2, [pc, #20]	; (8000424 <SPI1_Setup+0x13c>)
 800040e:	f043 0340 	orr.w	r3, r3, #64	; 0x40
 8000412:	6013      	str	r3, [r2, #0]
}
 8000414:	bf00      	nop
 8000416:	46bd      	mov	sp, r7
 8000418:	f85d 7b04 	ldr.w	r7, [sp], #4
 800041c:	4770      	bx	lr
 800041e:	bf00      	nop
 8000420:	40021000 	.word	0x40021000
 8000424:	40013000 	.word	0x40013000

08000428 <main>:

int main() {
 8000428:	b580      	push	{r7, lr}
 800042a:	af00      	add	r7, sp, #0
	// PWM 1000 Hz 50% generation
	//TIM16_setup();
	// for delay_ms
	SysTick_setup();
 800042c:	f7ff ff1c 	bl	8000268 <SysTick_setup>
	SPI1_Setup();
 8000430:	f7ff ff5a 	bl	80002e8 <SPI1_Setup>
	while (1) {
		if (data_changed) {
 8000434:	4b07      	ldr	r3, [pc, #28]	; (8000454 <main+0x2c>)
 8000436:	781b      	ldrb	r3, [r3, #0]
 8000438:	b2db      	uxtb	r3, r3
 800043a:	2b00      	cmp	r3, #0
 800043c:	d0fa      	beq.n	8000434 <main+0xc>
			SPI1_Send(data);
 800043e:	4b06      	ldr	r3, [pc, #24]	; (8000458 <main+0x30>)
 8000440:	681b      	ldr	r3, [r3, #0]
 8000442:	b29b      	uxth	r3, r3
 8000444:	4618      	mov	r0, r3
 8000446:	f7ff ff23 	bl	8000290 <SPI1_Send>
			data_changed = 0;
 800044a:	4b02      	ldr	r3, [pc, #8]	; (8000454 <main+0x2c>)
 800044c:	2200      	movs	r2, #0
 800044e:	701a      	strb	r2, [r3, #0]
		if (data_changed) {
 8000450:	e7f0      	b.n	8000434 <main+0xc>
 8000452:	bf00      	nop
 8000454:	20000420 	.word	0x20000420
 8000458:	20000418 	.word	0x20000418

0800045c <SystemInit>:
  * @param  None
  * @retval None
  */

void SystemInit(void)
{
 800045c:	b480      	push	{r7}
 800045e:	af00      	add	r7, sp, #0
  /* FPU settings ------------------------------------------------------------*/
  #if (__FPU_PRESENT == 1) && (__FPU_USED == 1)
    SCB->CPACR |= ((3UL << (10*2))|(3UL << (11*2)));  /* set CP10 and CP11 Full Access */
 8000460:	4b06      	ldr	r3, [pc, #24]	; (800047c <SystemInit+0x20>)
 8000462:	f8d3 3088 	ldr.w	r3, [r3, #136]	; 0x88
 8000466:	4a05      	ldr	r2, [pc, #20]	; (800047c <SystemInit+0x20>)
 8000468:	f443 0370 	orr.w	r3, r3, #15728640	; 0xf00000
 800046c:	f8c2 3088 	str.w	r3, [r2, #136]	; 0x88

  /* Configure the Vector Table location add offset address ------------------*/
#if defined(USER_VECT_TAB_ADDRESS)
  SCB->VTOR = VECT_TAB_BASE_ADDRESS | VECT_TAB_OFFSET; /* Vector Table Relocation in Internal SRAM */
#endif /* USER_VECT_TAB_ADDRESS */
}
 8000470:	bf00      	nop
 8000472:	46bd      	mov	sp, r7
 8000474:	f85d 7b04 	ldr.w	r7, [sp], #4
 8000478:	4770      	bx	lr
 800047a:	bf00      	nop
 800047c:	e000ed00 	.word	0xe000ed00

08000480 <Reset_Handler>:

    .section	.text.Reset_Handler
	.weak	Reset_Handler
	.type	Reset_Handler, %function
Reset_Handler:
  ldr   r0, =_estack
 8000480:	480d      	ldr	r0, [pc, #52]	; (80004b8 <LoopForever+0x2>)
  mov   sp, r0          /* set stack pointer */
 8000482:	4685      	mov	sp, r0

/* Call the clock system initialization function.*/
    bl  SystemInit
 8000484:	f7ff ffea 	bl	800045c <SystemInit>

/* Copy the data segment initializers from flash to SRAM */
  ldr r0, =_sdata
 8000488:	480c      	ldr	r0, [pc, #48]	; (80004bc <LoopForever+0x6>)
  ldr r1, =_edata
 800048a:	490d      	ldr	r1, [pc, #52]	; (80004c0 <LoopForever+0xa>)
  ldr r2, =_sidata
 800048c:	4a0d      	ldr	r2, [pc, #52]	; (80004c4 <LoopForever+0xe>)
  movs r3, #0
 800048e:	2300      	movs	r3, #0
  b	LoopCopyDataInit
 8000490:	e002      	b.n	8000498 <LoopCopyDataInit>

08000492 <CopyDataInit>:

CopyDataInit:
  ldr r4, [r2, r3]
 8000492:	58d4      	ldr	r4, [r2, r3]
  str r4, [r0, r3]
 8000494:	50c4      	str	r4, [r0, r3]
  adds r3, r3, #4
 8000496:	3304      	adds	r3, #4

08000498 <LoopCopyDataInit>:

LoopCopyDataInit:
  adds r4, r0, r3
 8000498:	18c4      	adds	r4, r0, r3
  cmp r4, r1
 800049a:	428c      	cmp	r4, r1
  bcc CopyDataInit
 800049c:	d3f9      	bcc.n	8000492 <CopyDataInit>
  
/* Zero fill the bss segment. */
  ldr r2, =_sbss
 800049e:	4a0a      	ldr	r2, [pc, #40]	; (80004c8 <LoopForever+0x12>)
  ldr r4, =_ebss
 80004a0:	4c0a      	ldr	r4, [pc, #40]	; (80004cc <LoopForever+0x16>)
  movs r3, #0
 80004a2:	2300      	movs	r3, #0
  b LoopFillZerobss
 80004a4:	e001      	b.n	80004aa <LoopFillZerobss>

080004a6 <FillZerobss>:

FillZerobss:
  str  r3, [r2]
 80004a6:	6013      	str	r3, [r2, #0]
  adds r2, r2, #4
 80004a8:	3204      	adds	r2, #4

080004aa <LoopFillZerobss>:

LoopFillZerobss:
  cmp r2, r4
 80004aa:	42a2      	cmp	r2, r4
  bcc FillZerobss
 80004ac:	d3fb      	bcc.n	80004a6 <FillZerobss>

/* Call static constructors */
    bl __libc_init_array
 80004ae:	f000 f811 	bl	80004d4 <__libc_init_array>
/* Call the application's entry point.*/
	bl	main
 80004b2:	f7ff ffb9 	bl	8000428 <main>

080004b6 <LoopForever>:

LoopForever:
    b LoopForever
 80004b6:	e7fe      	b.n	80004b6 <LoopForever>
  ldr   r0, =_estack
 80004b8:	20020000 	.word	0x20020000
  ldr r0, =_sdata
 80004bc:	20000000 	.word	0x20000000
  ldr r1, =_edata
 80004c0:	200003fc 	.word	0x200003fc
  ldr r2, =_sidata
 80004c4:	0800053c 	.word	0x0800053c
  ldr r2, =_sbss
 80004c8:	200003fc 	.word	0x200003fc
  ldr r4, =_ebss
 80004cc:	20000424 	.word	0x20000424

080004d0 <ADC1_2_IRQHandler>:
 * @retval : None
*/
    .section	.text.Default_Handler,"ax",%progbits
Default_Handler:
Infinite_Loop:
	b	Infinite_Loop
 80004d0:	e7fe      	b.n	80004d0 <ADC1_2_IRQHandler>
	...

080004d4 <__libc_init_array>:
 80004d4:	b570      	push	{r4, r5, r6, lr}
 80004d6:	4d0d      	ldr	r5, [pc, #52]	; (800050c <__libc_init_array+0x38>)
 80004d8:	4c0d      	ldr	r4, [pc, #52]	; (8000510 <__libc_init_array+0x3c>)
 80004da:	1b64      	subs	r4, r4, r5
 80004dc:	10a4      	asrs	r4, r4, #2
 80004de:	2600      	movs	r6, #0
 80004e0:	42a6      	cmp	r6, r4
 80004e2:	d109      	bne.n	80004f8 <__libc_init_array+0x24>
 80004e4:	4d0b      	ldr	r5, [pc, #44]	; (8000514 <__libc_init_array+0x40>)
 80004e6:	4c0c      	ldr	r4, [pc, #48]	; (8000518 <__libc_init_array+0x44>)
 80004e8:	f000 f818 	bl	800051c <_init>
 80004ec:	1b64      	subs	r4, r4, r5
 80004ee:	10a4      	asrs	r4, r4, #2
 80004f0:	2600      	movs	r6, #0
 80004f2:	42a6      	cmp	r6, r4
 80004f4:	d105      	bne.n	8000502 <__libc_init_array+0x2e>
 80004f6:	bd70      	pop	{r4, r5, r6, pc}
 80004f8:	f855 3b04 	ldr.w	r3, [r5], #4
 80004fc:	4798      	blx	r3
 80004fe:	3601      	adds	r6, #1
 8000500:	e7ee      	b.n	80004e0 <__libc_init_array+0xc>
 8000502:	f855 3b04 	ldr.w	r3, [r5], #4
 8000506:	4798      	blx	r3
 8000508:	3601      	adds	r6, #1
 800050a:	e7f2      	b.n	80004f2 <__libc_init_array+0x1e>
 800050c:	08000534 	.word	0x08000534
 8000510:	08000534 	.word	0x08000534
 8000514:	08000534 	.word	0x08000534
 8000518:	08000538 	.word	0x08000538

0800051c <_init>:
 800051c:	b5f8      	push	{r3, r4, r5, r6, r7, lr}
 800051e:	bf00      	nop
 8000520:	bcf8      	pop	{r3, r4, r5, r6, r7}
 8000522:	bc08      	pop	{r3}
 8000524:	469e      	mov	lr, r3
 8000526:	4770      	bx	lr

08000528 <_fini>:
 8000528:	b5f8      	push	{r3, r4, r5, r6, r7, lr}
 800052a:	bf00      	nop
 800052c:	bcf8      	pop	{r3, r4, r5, r6, r7}
 800052e:	bc08      	pop	{r3}
 8000530:	469e      	mov	lr, r3
 8000532:	4770      	bx	lr
