
lab4.elf:     file format elf32-littlearm

Sections:
Idx Name          Size      VMA       LMA       File off  Algn
  0 .isr_vector   000001c4  08000000  08000000  00010000  2**0
                  CONTENTS, ALLOC, LOAD, READONLY, DATA
  1 .text         00002234  080001c8  080001c8  000101c8  2**3
                  CONTENTS, ALLOC, LOAD, READONLY, CODE
  2 .rodata       000001d8  08002400  08002400  00012400  2**3
                  CONTENTS, ALLOC, LOAD, READONLY, DATA
  3 .ARM.extab    00000000  080025d8  080025d8  00020020  2**0
                  CONTENTS
  4 .ARM          00000000  080025d8  080025d8  00020020  2**0
                  CONTENTS
  5 .preinit_array 00000000  080025d8  080025d8  00020020  2**0
                  CONTENTS, ALLOC, LOAD, DATA
  6 .init_array   00000004  080025d8  080025d8  000125d8  2**2
                  CONTENTS, ALLOC, LOAD, DATA
  7 .fini_array   00000004  080025dc  080025dc  000125dc  2**2
                  CONTENTS, ALLOC, LOAD, DATA
  8 .data         00000020  20000000  080025e0  00020000  2**3
                  CONTENTS, ALLOC, LOAD, DATA
  9 .bss          00000024  20000020  08002600  00020020  2**2
                  ALLOC
 10 ._user_heap_stack 00000604  20000044  08002600  00020044  2**0
                  ALLOC
 11 .ARM.attributes 00000030  00000000  00000000  00020020  2**0
                  CONTENTS, READONLY
 12 .debug_info   00001a67  00000000  00000000  00020050  2**0
                  CONTENTS, READONLY, DEBUGGING, OCTETS
 13 .debug_abbrev 0000062a  00000000  00000000  00021ab7  2**0
                  CONTENTS, READONLY, DEBUGGING, OCTETS
 14 .debug_aranges 00000130  00000000  00000000  000220e8  2**3
                  CONTENTS, READONLY, DEBUGGING, OCTETS
 15 .debug_ranges 000000d8  00000000  00000000  00022218  2**3
                  CONTENTS, READONLY, DEBUGGING, OCTETS
 16 .debug_macro  00019f64  00000000  00000000  000222f0  2**0
                  CONTENTS, READONLY, DEBUGGING, OCTETS
 17 .debug_line   00001fc0  00000000  00000000  0003c254  2**0
                  CONTENTS, READONLY, DEBUGGING, OCTETS
 18 .debug_str    0008ff5d  00000000  00000000  0003e214  2**0
                  CONTENTS, READONLY, DEBUGGING, OCTETS
 19 .comment      00000050  00000000  00000000  000ce171  2**0
                  CONTENTS, READONLY
 20 .debug_frame  000006b8  00000000  00000000  000ce1c4  2**2
                  CONTENTS, READONLY, DEBUGGING, OCTETS

Disassembly of section .text:

080001c8 <__do_global_dtors_aux>:
 80001c8:	b510      	push	{r4, lr}
 80001ca:	4c05      	ldr	r4, [pc, #20]	; (80001e0 <__do_global_dtors_aux+0x18>)
 80001cc:	7823      	ldrb	r3, [r4, #0]
 80001ce:	b933      	cbnz	r3, 80001de <__do_global_dtors_aux+0x16>
 80001d0:	4b04      	ldr	r3, [pc, #16]	; (80001e4 <__do_global_dtors_aux+0x1c>)
 80001d2:	b113      	cbz	r3, 80001da <__do_global_dtors_aux+0x12>
 80001d4:	4804      	ldr	r0, [pc, #16]	; (80001e8 <__do_global_dtors_aux+0x20>)
 80001d6:	f3af 8000 	nop.w
 80001da:	2301      	movs	r3, #1
 80001dc:	7023      	strb	r3, [r4, #0]
 80001de:	bd10      	pop	{r4, pc}
 80001e0:	20000020 	.word	0x20000020
 80001e4:	00000000 	.word	0x00000000
 80001e8:	080023e4 	.word	0x080023e4

080001ec <frame_dummy>:
 80001ec:	b508      	push	{r3, lr}
 80001ee:	4b03      	ldr	r3, [pc, #12]	; (80001fc <frame_dummy+0x10>)
 80001f0:	b11b      	cbz	r3, 80001fa <frame_dummy+0xe>
 80001f2:	4903      	ldr	r1, [pc, #12]	; (8000200 <frame_dummy+0x14>)
 80001f4:	4803      	ldr	r0, [pc, #12]	; (8000204 <frame_dummy+0x18>)
 80001f6:	f3af 8000 	nop.w
 80001fa:	bd08      	pop	{r3, pc}
 80001fc:	00000000 	.word	0x00000000
 8000200:	20000024 	.word	0x20000024
 8000204:	080023e4 	.word	0x080023e4

08000208 <__aeabi_drsub>:
 8000208:	f081 4100 	eor.w	r1, r1, #2147483648	; 0x80000000
 800020c:	e002      	b.n	8000214 <__adddf3>
 800020e:	bf00      	nop

08000210 <__aeabi_dsub>:
 8000210:	f083 4300 	eor.w	r3, r3, #2147483648	; 0x80000000

08000214 <__adddf3>:
 8000214:	b530      	push	{r4, r5, lr}
 8000216:	ea4f 0441 	mov.w	r4, r1, lsl #1
 800021a:	ea4f 0543 	mov.w	r5, r3, lsl #1
 800021e:	ea94 0f05 	teq	r4, r5
 8000222:	bf08      	it	eq
 8000224:	ea90 0f02 	teqeq	r0, r2
 8000228:	bf1f      	itttt	ne
 800022a:	ea54 0c00 	orrsne.w	ip, r4, r0
 800022e:	ea55 0c02 	orrsne.w	ip, r5, r2
 8000232:	ea7f 5c64 	mvnsne.w	ip, r4, asr #21
 8000236:	ea7f 5c65 	mvnsne.w	ip, r5, asr #21
 800023a:	f000 80e2 	beq.w	8000402 <__adddf3+0x1ee>
 800023e:	ea4f 5454 	mov.w	r4, r4, lsr #21
 8000242:	ebd4 5555 	rsbs	r5, r4, r5, lsr #21
 8000246:	bfb8      	it	lt
 8000248:	426d      	neglt	r5, r5
 800024a:	dd0c      	ble.n	8000266 <__adddf3+0x52>
 800024c:	442c      	add	r4, r5
 800024e:	ea80 0202 	eor.w	r2, r0, r2
 8000252:	ea81 0303 	eor.w	r3, r1, r3
 8000256:	ea82 0000 	eor.w	r0, r2, r0
 800025a:	ea83 0101 	eor.w	r1, r3, r1
 800025e:	ea80 0202 	eor.w	r2, r0, r2
 8000262:	ea81 0303 	eor.w	r3, r1, r3
 8000266:	2d36      	cmp	r5, #54	; 0x36
 8000268:	bf88      	it	hi
 800026a:	bd30      	pophi	{r4, r5, pc}
 800026c:	f011 4f00 	tst.w	r1, #2147483648	; 0x80000000
 8000270:	ea4f 3101 	mov.w	r1, r1, lsl #12
 8000274:	f44f 1c80 	mov.w	ip, #1048576	; 0x100000
 8000278:	ea4c 3111 	orr.w	r1, ip, r1, lsr #12
 800027c:	d002      	beq.n	8000284 <__adddf3+0x70>
 800027e:	4240      	negs	r0, r0
 8000280:	eb61 0141 	sbc.w	r1, r1, r1, lsl #1
 8000284:	f013 4f00 	tst.w	r3, #2147483648	; 0x80000000
 8000288:	ea4f 3303 	mov.w	r3, r3, lsl #12
 800028c:	ea4c 3313 	orr.w	r3, ip, r3, lsr #12
 8000290:	d002      	beq.n	8000298 <__adddf3+0x84>
 8000292:	4252      	negs	r2, r2
 8000294:	eb63 0343 	sbc.w	r3, r3, r3, lsl #1
 8000298:	ea94 0f05 	teq	r4, r5
 800029c:	f000 80a7 	beq.w	80003ee <__adddf3+0x1da>
 80002a0:	f1a4 0401 	sub.w	r4, r4, #1
 80002a4:	f1d5 0e20 	rsbs	lr, r5, #32
 80002a8:	db0d      	blt.n	80002c6 <__adddf3+0xb2>
 80002aa:	fa02 fc0e 	lsl.w	ip, r2, lr
 80002ae:	fa22 f205 	lsr.w	r2, r2, r5
 80002b2:	1880      	adds	r0, r0, r2
 80002b4:	f141 0100 	adc.w	r1, r1, #0
 80002b8:	fa03 f20e 	lsl.w	r2, r3, lr
 80002bc:	1880      	adds	r0, r0, r2
 80002be:	fa43 f305 	asr.w	r3, r3, r5
 80002c2:	4159      	adcs	r1, r3
 80002c4:	e00e      	b.n	80002e4 <__adddf3+0xd0>
 80002c6:	f1a5 0520 	sub.w	r5, r5, #32
 80002ca:	f10e 0e20 	add.w	lr, lr, #32
 80002ce:	2a01      	cmp	r2, #1
 80002d0:	fa03 fc0e 	lsl.w	ip, r3, lr
 80002d4:	bf28      	it	cs
 80002d6:	f04c 0c02 	orrcs.w	ip, ip, #2
 80002da:	fa43 f305 	asr.w	r3, r3, r5
 80002de:	18c0      	adds	r0, r0, r3
 80002e0:	eb51 71e3 	adcs.w	r1, r1, r3, asr #31
 80002e4:	f001 4500 	and.w	r5, r1, #2147483648	; 0x80000000
 80002e8:	d507      	bpl.n	80002fa <__adddf3+0xe6>
 80002ea:	f04f 0e00 	mov.w	lr, #0
 80002ee:	f1dc 0c00 	rsbs	ip, ip, #0
 80002f2:	eb7e 0000 	sbcs.w	r0, lr, r0
 80002f6:	eb6e 0101 	sbc.w	r1, lr, r1
 80002fa:	f5b1 1f80 	cmp.w	r1, #1048576	; 0x100000
 80002fe:	d31b      	bcc.n	8000338 <__adddf3+0x124>
 8000300:	f5b1 1f00 	cmp.w	r1, #2097152	; 0x200000
 8000304:	d30c      	bcc.n	8000320 <__adddf3+0x10c>
 8000306:	0849      	lsrs	r1, r1, #1
 8000308:	ea5f 0030 	movs.w	r0, r0, rrx
 800030c:	ea4f 0c3c 	mov.w	ip, ip, rrx
 8000310:	f104 0401 	add.w	r4, r4, #1
 8000314:	ea4f 5244 	mov.w	r2, r4, lsl #21
 8000318:	f512 0f80 	cmn.w	r2, #4194304	; 0x400000
 800031c:	f080 809a 	bcs.w	8000454 <__adddf3+0x240>
 8000320:	f1bc 4f00 	cmp.w	ip, #2147483648	; 0x80000000
 8000324:	bf08      	it	eq
 8000326:	ea5f 0c50 	movseq.w	ip, r0, lsr #1
 800032a:	f150 0000 	adcs.w	r0, r0, #0
 800032e:	eb41 5104 	adc.w	r1, r1, r4, lsl #20
 8000332:	ea41 0105 	orr.w	r1, r1, r5
 8000336:	bd30      	pop	{r4, r5, pc}
 8000338:	ea5f 0c4c 	movs.w	ip, ip, lsl #1
 800033c:	4140      	adcs	r0, r0
 800033e:	eb41 0101 	adc.w	r1, r1, r1
 8000342:	3c01      	subs	r4, #1
 8000344:	bf28      	it	cs
 8000346:	f5b1 1f80 	cmpcs.w	r1, #1048576	; 0x100000
 800034a:	d2e9      	bcs.n	8000320 <__adddf3+0x10c>
 800034c:	f091 0f00 	teq	r1, #0
 8000350:	bf04      	itt	eq
 8000352:	4601      	moveq	r1, r0
 8000354:	2000      	moveq	r0, #0
 8000356:	fab1 f381 	clz	r3, r1
 800035a:	bf08      	it	eq
 800035c:	3320      	addeq	r3, #32
 800035e:	f1a3 030b 	sub.w	r3, r3, #11
 8000362:	f1b3 0220 	subs.w	r2, r3, #32
 8000366:	da0c      	bge.n	8000382 <__adddf3+0x16e>
 8000368:	320c      	adds	r2, #12
 800036a:	dd08      	ble.n	800037e <__adddf3+0x16a>
 800036c:	f102 0c14 	add.w	ip, r2, #20
 8000370:	f1c2 020c 	rsb	r2, r2, #12
 8000374:	fa01 f00c 	lsl.w	r0, r1, ip
 8000378:	fa21 f102 	lsr.w	r1, r1, r2
 800037c:	e00c      	b.n	8000398 <__adddf3+0x184>
 800037e:	f102 0214 	add.w	r2, r2, #20
 8000382:	bfd8      	it	le
 8000384:	f1c2 0c20 	rsble	ip, r2, #32
 8000388:	fa01 f102 	lsl.w	r1, r1, r2
 800038c:	fa20 fc0c 	lsr.w	ip, r0, ip
 8000390:	bfdc      	itt	le
 8000392:	ea41 010c 	orrle.w	r1, r1, ip
 8000396:	4090      	lslle	r0, r2
 8000398:	1ae4      	subs	r4, r4, r3
 800039a:	bfa2      	ittt	ge
 800039c:	eb01 5104 	addge.w	r1, r1, r4, lsl #20
 80003a0:	4329      	orrge	r1, r5
 80003a2:	bd30      	popge	{r4, r5, pc}
 80003a4:	ea6f 0404 	mvn.w	r4, r4
 80003a8:	3c1f      	subs	r4, #31
 80003aa:	da1c      	bge.n	80003e6 <__adddf3+0x1d2>
 80003ac:	340c      	adds	r4, #12
 80003ae:	dc0e      	bgt.n	80003ce <__adddf3+0x1ba>
 80003b0:	f104 0414 	add.w	r4, r4, #20
 80003b4:	f1c4 0220 	rsb	r2, r4, #32
 80003b8:	fa20 f004 	lsr.w	r0, r0, r4
 80003bc:	fa01 f302 	lsl.w	r3, r1, r2
 80003c0:	ea40 0003 	orr.w	r0, r0, r3
 80003c4:	fa21 f304 	lsr.w	r3, r1, r4
 80003c8:	ea45 0103 	orr.w	r1, r5, r3
 80003cc:	bd30      	pop	{r4, r5, pc}
 80003ce:	f1c4 040c 	rsb	r4, r4, #12
 80003d2:	f1c4 0220 	rsb	r2, r4, #32
 80003d6:	fa20 f002 	lsr.w	r0, r0, r2
 80003da:	fa01 f304 	lsl.w	r3, r1, r4
 80003de:	ea40 0003 	orr.w	r0, r0, r3
 80003e2:	4629      	mov	r1, r5
 80003e4:	bd30      	pop	{r4, r5, pc}
 80003e6:	fa21 f004 	lsr.w	r0, r1, r4
 80003ea:	4629      	mov	r1, r5
 80003ec:	bd30      	pop	{r4, r5, pc}
 80003ee:	f094 0f00 	teq	r4, #0
 80003f2:	f483 1380 	eor.w	r3, r3, #1048576	; 0x100000
 80003f6:	bf06      	itte	eq
 80003f8:	f481 1180 	eoreq.w	r1, r1, #1048576	; 0x100000
 80003fc:	3401      	addeq	r4, #1
 80003fe:	3d01      	subne	r5, #1
 8000400:	e74e      	b.n	80002a0 <__adddf3+0x8c>
 8000402:	ea7f 5c64 	mvns.w	ip, r4, asr #21
 8000406:	bf18      	it	ne
 8000408:	ea7f 5c65 	mvnsne.w	ip, r5, asr #21
 800040c:	d029      	beq.n	8000462 <__adddf3+0x24e>
 800040e:	ea94 0f05 	teq	r4, r5
 8000412:	bf08      	it	eq
 8000414:	ea90 0f02 	teqeq	r0, r2
 8000418:	d005      	beq.n	8000426 <__adddf3+0x212>
 800041a:	ea54 0c00 	orrs.w	ip, r4, r0
 800041e:	bf04      	itt	eq
 8000420:	4619      	moveq	r1, r3
 8000422:	4610      	moveq	r0, r2
 8000424:	bd30      	pop	{r4, r5, pc}
 8000426:	ea91 0f03 	teq	r1, r3
 800042a:	bf1e      	ittt	ne
 800042c:	2100      	movne	r1, #0
 800042e:	2000      	movne	r0, #0
 8000430:	bd30      	popne	{r4, r5, pc}
 8000432:	ea5f 5c54 	movs.w	ip, r4, lsr #21
 8000436:	d105      	bne.n	8000444 <__adddf3+0x230>
 8000438:	0040      	lsls	r0, r0, #1
 800043a:	4149      	adcs	r1, r1
 800043c:	bf28      	it	cs
 800043e:	f041 4100 	orrcs.w	r1, r1, #2147483648	; 0x80000000
 8000442:	bd30      	pop	{r4, r5, pc}
 8000444:	f514 0480 	adds.w	r4, r4, #4194304	; 0x400000
 8000448:	bf3c      	itt	cc
 800044a:	f501 1180 	addcc.w	r1, r1, #1048576	; 0x100000
 800044e:	bd30      	popcc	{r4, r5, pc}
 8000450:	f001 4500 	and.w	r5, r1, #2147483648	; 0x80000000
 8000454:	f045 41fe 	orr.w	r1, r5, #2130706432	; 0x7f000000
 8000458:	f441 0170 	orr.w	r1, r1, #15728640	; 0xf00000
 800045c:	f04f 0000 	mov.w	r0, #0
 8000460:	bd30      	pop	{r4, r5, pc}
 8000462:	ea7f 5c64 	mvns.w	ip, r4, asr #21
 8000466:	bf1a      	itte	ne
 8000468:	4619      	movne	r1, r3
 800046a:	4610      	movne	r0, r2
 800046c:	ea7f 5c65 	mvnseq.w	ip, r5, asr #21
 8000470:	bf1c      	itt	ne
 8000472:	460b      	movne	r3, r1
 8000474:	4602      	movne	r2, r0
 8000476:	ea50 3401 	orrs.w	r4, r0, r1, lsl #12
 800047a:	bf06      	itte	eq
 800047c:	ea52 3503 	orrseq.w	r5, r2, r3, lsl #12
 8000480:	ea91 0f03 	teqeq	r1, r3
 8000484:	f441 2100 	orrne.w	r1, r1, #524288	; 0x80000
 8000488:	bd30      	pop	{r4, r5, pc}
 800048a:	bf00      	nop

0800048c <__aeabi_ui2d>:
 800048c:	f090 0f00 	teq	r0, #0
 8000490:	bf04      	itt	eq
 8000492:	2100      	moveq	r1, #0
 8000494:	4770      	bxeq	lr
 8000496:	b530      	push	{r4, r5, lr}
 8000498:	f44f 6480 	mov.w	r4, #1024	; 0x400
 800049c:	f104 0432 	add.w	r4, r4, #50	; 0x32
 80004a0:	f04f 0500 	mov.w	r5, #0
 80004a4:	f04f 0100 	mov.w	r1, #0
 80004a8:	e750      	b.n	800034c <__adddf3+0x138>
 80004aa:	bf00      	nop

080004ac <__aeabi_i2d>:
 80004ac:	f090 0f00 	teq	r0, #0
 80004b0:	bf04      	itt	eq
 80004b2:	2100      	moveq	r1, #0
 80004b4:	4770      	bxeq	lr
 80004b6:	b530      	push	{r4, r5, lr}
 80004b8:	f44f 6480 	mov.w	r4, #1024	; 0x400
 80004bc:	f104 0432 	add.w	r4, r4, #50	; 0x32
 80004c0:	f010 4500 	ands.w	r5, r0, #2147483648	; 0x80000000
 80004c4:	bf48      	it	mi
 80004c6:	4240      	negmi	r0, r0
 80004c8:	f04f 0100 	mov.w	r1, #0
 80004cc:	e73e      	b.n	800034c <__adddf3+0x138>
 80004ce:	bf00      	nop

080004d0 <__aeabi_f2d>:
 80004d0:	0042      	lsls	r2, r0, #1
 80004d2:	ea4f 01e2 	mov.w	r1, r2, asr #3
 80004d6:	ea4f 0131 	mov.w	r1, r1, rrx
 80004da:	ea4f 7002 	mov.w	r0, r2, lsl #28
 80004de:	bf1f      	itttt	ne
 80004e0:	f012 437f 	andsne.w	r3, r2, #4278190080	; 0xff000000
 80004e4:	f093 4f7f 	teqne	r3, #4278190080	; 0xff000000
 80004e8:	f081 5160 	eorne.w	r1, r1, #939524096	; 0x38000000
 80004ec:	4770      	bxne	lr
 80004ee:	f032 427f 	bics.w	r2, r2, #4278190080	; 0xff000000
 80004f2:	bf08      	it	eq
 80004f4:	4770      	bxeq	lr
 80004f6:	f093 4f7f 	teq	r3, #4278190080	; 0xff000000
 80004fa:	bf04      	itt	eq
 80004fc:	f441 2100 	orreq.w	r1, r1, #524288	; 0x80000
 8000500:	4770      	bxeq	lr
 8000502:	b530      	push	{r4, r5, lr}
 8000504:	f44f 7460 	mov.w	r4, #896	; 0x380
 8000508:	f001 4500 	and.w	r5, r1, #2147483648	; 0x80000000
 800050c:	f021 4100 	bic.w	r1, r1, #2147483648	; 0x80000000
 8000510:	e71c      	b.n	800034c <__adddf3+0x138>
 8000512:	bf00      	nop

08000514 <__aeabi_ul2d>:
 8000514:	ea50 0201 	orrs.w	r2, r0, r1
 8000518:	bf08      	it	eq
 800051a:	4770      	bxeq	lr
 800051c:	b530      	push	{r4, r5, lr}
 800051e:	f04f 0500 	mov.w	r5, #0
 8000522:	e00a      	b.n	800053a <__aeabi_l2d+0x16>

08000524 <__aeabi_l2d>:
 8000524:	ea50 0201 	orrs.w	r2, r0, r1
 8000528:	bf08      	it	eq
 800052a:	4770      	bxeq	lr
 800052c:	b530      	push	{r4, r5, lr}
 800052e:	f011 4500 	ands.w	r5, r1, #2147483648	; 0x80000000
 8000532:	d502      	bpl.n	800053a <__aeabi_l2d+0x16>
 8000534:	4240      	negs	r0, r0
 8000536:	eb61 0141 	sbc.w	r1, r1, r1, lsl #1
 800053a:	f44f 6480 	mov.w	r4, #1024	; 0x400
 800053e:	f104 0432 	add.w	r4, r4, #50	; 0x32
 8000542:	ea5f 5c91 	movs.w	ip, r1, lsr #22
 8000546:	f43f aed8 	beq.w	80002fa <__adddf3+0xe6>
 800054a:	f04f 0203 	mov.w	r2, #3
 800054e:	ea5f 0cdc 	movs.w	ip, ip, lsr #3
 8000552:	bf18      	it	ne
 8000554:	3203      	addne	r2, #3
 8000556:	ea5f 0cdc 	movs.w	ip, ip, lsr #3
 800055a:	bf18      	it	ne
 800055c:	3203      	addne	r2, #3
 800055e:	eb02 02dc 	add.w	r2, r2, ip, lsr #3
 8000562:	f1c2 0320 	rsb	r3, r2, #32
 8000566:	fa00 fc03 	lsl.w	ip, r0, r3
 800056a:	fa20 f002 	lsr.w	r0, r0, r2
 800056e:	fa01 fe03 	lsl.w	lr, r1, r3
 8000572:	ea40 000e 	orr.w	r0, r0, lr
 8000576:	fa21 f102 	lsr.w	r1, r1, r2
 800057a:	4414      	add	r4, r2
 800057c:	e6bd      	b.n	80002fa <__adddf3+0xe6>
 800057e:	bf00      	nop

08000580 <__aeabi_dmul>:
 8000580:	b570      	push	{r4, r5, r6, lr}
 8000582:	f04f 0cff 	mov.w	ip, #255	; 0xff
 8000586:	f44c 6ce0 	orr.w	ip, ip, #1792	; 0x700
 800058a:	ea1c 5411 	ands.w	r4, ip, r1, lsr #20
 800058e:	bf1d      	ittte	ne
 8000590:	ea1c 5513 	andsne.w	r5, ip, r3, lsr #20
 8000594:	ea94 0f0c 	teqne	r4, ip
 8000598:	ea95 0f0c 	teqne	r5, ip
 800059c:	f000 f8de 	bleq	800075c <__aeabi_dmul+0x1dc>
 80005a0:	442c      	add	r4, r5
 80005a2:	ea81 0603 	eor.w	r6, r1, r3
 80005a6:	ea21 514c 	bic.w	r1, r1, ip, lsl #21
 80005aa:	ea23 534c 	bic.w	r3, r3, ip, lsl #21
 80005ae:	ea50 3501 	orrs.w	r5, r0, r1, lsl #12
 80005b2:	bf18      	it	ne
 80005b4:	ea52 3503 	orrsne.w	r5, r2, r3, lsl #12
 80005b8:	f441 1180 	orr.w	r1, r1, #1048576	; 0x100000
 80005bc:	f443 1380 	orr.w	r3, r3, #1048576	; 0x100000
 80005c0:	d038      	beq.n	8000634 <__aeabi_dmul+0xb4>
 80005c2:	fba0 ce02 	umull	ip, lr, r0, r2
 80005c6:	f04f 0500 	mov.w	r5, #0
 80005ca:	fbe1 e502 	umlal	lr, r5, r1, r2
 80005ce:	f006 4200 	and.w	r2, r6, #2147483648	; 0x80000000
 80005d2:	fbe0 e503 	umlal	lr, r5, r0, r3
 80005d6:	f04f 0600 	mov.w	r6, #0
 80005da:	fbe1 5603 	umlal	r5, r6, r1, r3
 80005de:	f09c 0f00 	teq	ip, #0
 80005e2:	bf18      	it	ne
 80005e4:	f04e 0e01 	orrne.w	lr, lr, #1
 80005e8:	f1a4 04ff 	sub.w	r4, r4, #255	; 0xff
 80005ec:	f5b6 7f00 	cmp.w	r6, #512	; 0x200
 80005f0:	f564 7440 	sbc.w	r4, r4, #768	; 0x300
 80005f4:	d204      	bcs.n	8000600 <__aeabi_dmul+0x80>
 80005f6:	ea5f 0e4e 	movs.w	lr, lr, lsl #1
 80005fa:	416d      	adcs	r5, r5
 80005fc:	eb46 0606 	adc.w	r6, r6, r6
 8000600:	ea42 21c6 	orr.w	r1, r2, r6, lsl #11
 8000604:	ea41 5155 	orr.w	r1, r1, r5, lsr #21
 8000608:	ea4f 20c5 	mov.w	r0, r5, lsl #11
 800060c:	ea40 505e 	orr.w	r0, r0, lr, lsr #21
 8000610:	ea4f 2ece 	mov.w	lr, lr, lsl #11
 8000614:	f1b4 0cfd 	subs.w	ip, r4, #253	; 0xfd
 8000618:	bf88      	it	hi
 800061a:	f5bc 6fe0 	cmphi.w	ip, #1792	; 0x700
 800061e:	d81e      	bhi.n	800065e <__aeabi_dmul+0xde>
 8000620:	f1be 4f00 	cmp.w	lr, #2147483648	; 0x80000000
 8000624:	bf08      	it	eq
 8000626:	ea5f 0e50 	movseq.w	lr, r0, lsr #1
 800062a:	f150 0000 	adcs.w	r0, r0, #0
 800062e:	eb41 5104 	adc.w	r1, r1, r4, lsl #20
 8000632:	bd70      	pop	{r4, r5, r6, pc}
 8000634:	f006 4600 	and.w	r6, r6, #2147483648	; 0x80000000
 8000638:	ea46 0101 	orr.w	r1, r6, r1
 800063c:	ea40 0002 	orr.w	r0, r0, r2
 8000640:	ea81 0103 	eor.w	r1, r1, r3
 8000644:	ebb4 045c 	subs.w	r4, r4, ip, lsr #1
 8000648:	bfc2      	ittt	gt
 800064a:	ebd4 050c 	rsbsgt	r5, r4, ip
 800064e:	ea41 5104 	orrgt.w	r1, r1, r4, lsl #20
 8000652:	bd70      	popgt	{r4, r5, r6, pc}
 8000654:	f441 1180 	orr.w	r1, r1, #1048576	; 0x100000
 8000658:	f04f 0e00 	mov.w	lr, #0
 800065c:	3c01      	subs	r4, #1
 800065e:	f300 80ab 	bgt.w	80007b8 <__aeabi_dmul+0x238>
 8000662:	f114 0f36 	cmn.w	r4, #54	; 0x36
 8000666:	bfde      	ittt	le
 8000668:	2000      	movle	r0, #0
 800066a:	f001 4100 	andle.w	r1, r1, #2147483648	; 0x80000000
 800066e:	bd70      	pople	{r4, r5, r6, pc}
 8000670:	f1c4 0400 	rsb	r4, r4, #0
 8000674:	3c20      	subs	r4, #32
 8000676:	da35      	bge.n	80006e4 <__aeabi_dmul+0x164>
 8000678:	340c      	adds	r4, #12
 800067a:	dc1b      	bgt.n	80006b4 <__aeabi_dmul+0x134>
 800067c:	f104 0414 	add.w	r4, r4, #20
 8000680:	f1c4 0520 	rsb	r5, r4, #32
 8000684:	fa00 f305 	lsl.w	r3, r0, r5
 8000688:	fa20 f004 	lsr.w	r0, r0, r4
 800068c:	fa01 f205 	lsl.w	r2, r1, r5
 8000690:	ea40 0002 	orr.w	r0, r0, r2
 8000694:	f001 4200 	and.w	r2, r1, #2147483648	; 0x80000000
 8000698:	f021 4100 	bic.w	r1, r1, #2147483648	; 0x80000000
 800069c:	eb10 70d3 	adds.w	r0, r0, r3, lsr #31
 80006a0:	fa21 f604 	lsr.w	r6, r1, r4
 80006a4:	eb42 0106 	adc.w	r1, r2, r6
 80006a8:	ea5e 0e43 	orrs.w	lr, lr, r3, lsl #1
 80006ac:	bf08      	it	eq
 80006ae:	ea20 70d3 	biceq.w	r0, r0, r3, lsr #31
 80006b2:	bd70      	pop	{r4, r5, r6, pc}
 80006b4:	f1c4 040c 	rsb	r4, r4, #12
 80006b8:	f1c4 0520 	rsb	r5, r4, #32
 80006bc:	fa00 f304 	lsl.w	r3, r0, r4
 80006c0:	fa20 f005 	lsr.w	r0, r0, r5
 80006c4:	fa01 f204 	lsl.w	r2, r1, r4
 80006c8:	ea40 0002 	orr.w	r0, r0, r2
 80006cc:	f001 4100 	and.w	r1, r1, #2147483648	; 0x80000000
 80006d0:	eb10 70d3 	adds.w	r0, r0, r3, lsr #31
 80006d4:	f141 0100 	adc.w	r1, r1, #0
 80006d8:	ea5e 0e43 	orrs.w	lr, lr, r3, lsl #1
 80006dc:	bf08      	it	eq
 80006de:	ea20 70d3 	biceq.w	r0, r0, r3, lsr #31
 80006e2:	bd70      	pop	{r4, r5, r6, pc}
 80006e4:	f1c4 0520 	rsb	r5, r4, #32
 80006e8:	fa00 f205 	lsl.w	r2, r0, r5
 80006ec:	ea4e 0e02 	orr.w	lr, lr, r2
 80006f0:	fa20 f304 	lsr.w	r3, r0, r4
 80006f4:	fa01 f205 	lsl.w	r2, r1, r5
 80006f8:	ea43 0302 	orr.w	r3, r3, r2
 80006fc:	fa21 f004 	lsr.w	r0, r1, r4
 8000700:	f001 4100 	and.w	r1, r1, #2147483648	; 0x80000000
 8000704:	fa21 f204 	lsr.w	r2, r1, r4
 8000708:	ea20 0002 	bic.w	r0, r0, r2
 800070c:	eb00 70d3 	add.w	r0, r0, r3, lsr #31
 8000710:	ea5e 0e43 	orrs.w	lr, lr, r3, lsl #1
 8000714:	bf08      	it	eq
 8000716:	ea20 70d3 	biceq.w	r0, r0, r3, lsr #31
 800071a:	bd70      	pop	{r4, r5, r6, pc}
 800071c:	f094 0f00 	teq	r4, #0
 8000720:	d10f      	bne.n	8000742 <__aeabi_dmul+0x1c2>
 8000722:	f001 4600 	and.w	r6, r1, #2147483648	; 0x80000000
 8000726:	0040      	lsls	r0, r0, #1
 8000728:	eb41 0101 	adc.w	r1, r1, r1
 800072c:	f411 1f80 	tst.w	r1, #1048576	; 0x100000
 8000730:	bf08      	it	eq
 8000732:	3c01      	subeq	r4, #1
 8000734:	d0f7      	beq.n	8000726 <__aeabi_dmul+0x1a6>
 8000736:	ea41 0106 	orr.w	r1, r1, r6
 800073a:	f095 0f00 	teq	r5, #0
 800073e:	bf18      	it	ne
 8000740:	4770      	bxne	lr
 8000742:	f003 4600 	and.w	r6, r3, #2147483648	; 0x80000000
 8000746:	0052      	lsls	r2, r2, #1
 8000748:	eb43 0303 	adc.w	r3, r3, r3
 800074c:	f413 1f80 	tst.w	r3, #1048576	; 0x100000
 8000750:	bf08      	it	eq
 8000752:	3d01      	subeq	r5, #1
 8000754:	d0f7      	beq.n	8000746 <__aeabi_dmul+0x1c6>
 8000756:	ea43 0306 	orr.w	r3, r3, r6
 800075a:	4770      	bx	lr
 800075c:	ea94 0f0c 	teq	r4, ip
 8000760:	ea0c 5513 	and.w	r5, ip, r3, lsr #20
 8000764:	bf18      	it	ne
 8000766:	ea95 0f0c 	teqne	r5, ip
 800076a:	d00c      	beq.n	8000786 <__aeabi_dmul+0x206>
 800076c:	ea50 0641 	orrs.w	r6, r0, r1, lsl #1
 8000770:	bf18      	it	ne
 8000772:	ea52 0643 	orrsne.w	r6, r2, r3, lsl #1
 8000776:	d1d1      	bne.n	800071c <__aeabi_dmul+0x19c>
 8000778:	ea81 0103 	eor.w	r1, r1, r3
 800077c:	f001 4100 	and.w	r1, r1, #2147483648	; 0x80000000
 8000780:	f04f 0000 	mov.w	r0, #0
 8000784:	bd70      	pop	{r4, r5, r6, pc}
 8000786:	ea50 0641 	orrs.w	r6, r0, r1, lsl #1
 800078a:	bf06      	itte	eq
 800078c:	4610      	moveq	r0, r2
 800078e:	4619      	moveq	r1, r3
 8000790:	ea52 0643 	orrsne.w	r6, r2, r3, lsl #1
 8000794:	d019      	beq.n	80007ca <__aeabi_dmul+0x24a>
 8000796:	ea94 0f0c 	teq	r4, ip
 800079a:	d102      	bne.n	80007a2 <__aeabi_dmul+0x222>
 800079c:	ea50 3601 	orrs.w	r6, r0, r1, lsl #12
 80007a0:	d113      	bne.n	80007ca <__aeabi_dmul+0x24a>
 80007a2:	ea95 0f0c 	teq	r5, ip
 80007a6:	d105      	bne.n	80007b4 <__aeabi_dmul+0x234>
 80007a8:	ea52 3603 	orrs.w	r6, r2, r3, lsl #12
 80007ac:	bf1c      	itt	ne
 80007ae:	4610      	movne	r0, r2
 80007b0:	4619      	movne	r1, r3
 80007b2:	d10a      	bne.n	80007ca <__aeabi_dmul+0x24a>
 80007b4:	ea81 0103 	eor.w	r1, r1, r3
 80007b8:	f001 4100 	and.w	r1, r1, #2147483648	; 0x80000000
 80007bc:	f041 41fe 	orr.w	r1, r1, #2130706432	; 0x7f000000
 80007c0:	f441 0170 	orr.w	r1, r1, #15728640	; 0xf00000
 80007c4:	f04f 0000 	mov.w	r0, #0
 80007c8:	bd70      	pop	{r4, r5, r6, pc}
 80007ca:	f041 41fe 	orr.w	r1, r1, #2130706432	; 0x7f000000
 80007ce:	f441 0178 	orr.w	r1, r1, #16252928	; 0xf80000
 80007d2:	bd70      	pop	{r4, r5, r6, pc}

080007d4 <__aeabi_ddiv>:
 80007d4:	b570      	push	{r4, r5, r6, lr}
 80007d6:	f04f 0cff 	mov.w	ip, #255	; 0xff
 80007da:	f44c 6ce0 	orr.w	ip, ip, #1792	; 0x700
 80007de:	ea1c 5411 	ands.w	r4, ip, r1, lsr #20
 80007e2:	bf1d      	ittte	ne
 80007e4:	ea1c 5513 	andsne.w	r5, ip, r3, lsr #20
 80007e8:	ea94 0f0c 	teqne	r4, ip
 80007ec:	ea95 0f0c 	teqne	r5, ip
 80007f0:	f000 f8a7 	bleq	8000942 <__aeabi_ddiv+0x16e>
 80007f4:	eba4 0405 	sub.w	r4, r4, r5
 80007f8:	ea81 0e03 	eor.w	lr, r1, r3
 80007fc:	ea52 3503 	orrs.w	r5, r2, r3, lsl #12
 8000800:	ea4f 3101 	mov.w	r1, r1, lsl #12
 8000804:	f000 8088 	beq.w	8000918 <__aeabi_ddiv+0x144>
 8000808:	ea4f 3303 	mov.w	r3, r3, lsl #12
 800080c:	f04f 5580 	mov.w	r5, #268435456	; 0x10000000
 8000810:	ea45 1313 	orr.w	r3, r5, r3, lsr #4
 8000814:	ea43 6312 	orr.w	r3, r3, r2, lsr #24
 8000818:	ea4f 2202 	mov.w	r2, r2, lsl #8
 800081c:	ea45 1511 	orr.w	r5, r5, r1, lsr #4
 8000820:	ea45 6510 	orr.w	r5, r5, r0, lsr #24
 8000824:	ea4f 2600 	mov.w	r6, r0, lsl #8
 8000828:	f00e 4100 	and.w	r1, lr, #2147483648	; 0x80000000
 800082c:	429d      	cmp	r5, r3
 800082e:	bf08      	it	eq
 8000830:	4296      	cmpeq	r6, r2
 8000832:	f144 04fd 	adc.w	r4, r4, #253	; 0xfd
 8000836:	f504 7440 	add.w	r4, r4, #768	; 0x300
 800083a:	d202      	bcs.n	8000842 <__aeabi_ddiv+0x6e>
 800083c:	085b      	lsrs	r3, r3, #1
 800083e:	ea4f 0232 	mov.w	r2, r2, rrx
 8000842:	1ab6      	subs	r6, r6, r2
 8000844:	eb65 0503 	sbc.w	r5, r5, r3
 8000848:	085b      	lsrs	r3, r3, #1
 800084a:	ea4f 0232 	mov.w	r2, r2, rrx
 800084e:	f44f 1080 	mov.w	r0, #1048576	; 0x100000
 8000852:	f44f 2c00 	mov.w	ip, #524288	; 0x80000
 8000856:	ebb6 0e02 	subs.w	lr, r6, r2
 800085a:	eb75 0e03 	sbcs.w	lr, r5, r3
 800085e:	bf22      	ittt	cs
 8000860:	1ab6      	subcs	r6, r6, r2
 8000862:	4675      	movcs	r5, lr
 8000864:	ea40 000c 	orrcs.w	r0, r0, ip
 8000868:	085b      	lsrs	r3, r3, #1
 800086a:	ea4f 0232 	mov.w	r2, r2, rrx
 800086e:	ebb6 0e02 	subs.w	lr, r6, r2
 8000872:	eb75 0e03 	sbcs.w	lr, r5, r3
 8000876:	bf22      	ittt	cs
 8000878:	1ab6      	subcs	r6, r6, r2
 800087a:	4675      	movcs	r5, lr
 800087c:	ea40 005c 	orrcs.w	r0, r0, ip, lsr #1
 8000880:	085b      	lsrs	r3, r3, #1
 8000882:	ea4f 0232 	mov.w	r2, r2, rrx
 8000886:	ebb6 0e02 	subs.w	lr, r6, r2
 800088a:	eb75 0e03 	sbcs.w	lr, r5, r3
 800088e:	bf22      	ittt	cs
 8000890:	1ab6      	subcs	r6, r6, r2
 8000892:	4675      	movcs	r5, lr
 8000894:	ea40 009c 	orrcs.w	r0, r0, ip, lsr #2
 8000898:	085b      	lsrs	r3, r3, #1
 800089a:	ea4f 0232 	mov.w	r2, r2, rrx
 800089e:	ebb6 0e02 	subs.w	lr, r6, r2
 80008a2:	eb75 0e03 	sbcs.w	lr, r5, r3
 80008a6:	bf22      	ittt	cs
 80008a8:	1ab6      	subcs	r6, r6, r2
 80008aa:	4675      	movcs	r5, lr
 80008ac:	ea40 00dc 	orrcs.w	r0, r0, ip, lsr #3
 80008b0:	ea55 0e06 	orrs.w	lr, r5, r6
 80008b4:	d018      	beq.n	80008e8 <__aeabi_ddiv+0x114>
 80008b6:	ea4f 1505 	mov.w	r5, r5, lsl #4
 80008ba:	ea45 7516 	orr.w	r5, r5, r6, lsr #28
 80008be:	ea4f 1606 	mov.w	r6, r6, lsl #4
 80008c2:	ea4f 03c3 	mov.w	r3, r3, lsl #3
 80008c6:	ea43 7352 	orr.w	r3, r3, r2, lsr #29
 80008ca:	ea4f 02c2 	mov.w	r2, r2, lsl #3
 80008ce:	ea5f 1c1c 	movs.w	ip, ip, lsr #4
 80008d2:	d1c0      	bne.n	8000856 <__aeabi_ddiv+0x82>
 80008d4:	f411 1f80 	tst.w	r1, #1048576	; 0x100000
 80008d8:	d10b      	bne.n	80008f2 <__aeabi_ddiv+0x11e>
 80008da:	ea41 0100 	orr.w	r1, r1, r0
 80008de:	f04f 0000 	mov.w	r0, #0
 80008e2:	f04f 4c00 	mov.w	ip, #2147483648	; 0x80000000
 80008e6:	e7b6      	b.n	8000856 <__aeabi_ddiv+0x82>
 80008e8:	f411 1f80 	tst.w	r1, #1048576	; 0x100000
 80008ec:	bf04      	itt	eq
 80008ee:	4301      	orreq	r1, r0
 80008f0:	2000      	moveq	r0, #0
 80008f2:	f1b4 0cfd 	subs.w	ip, r4, #253	; 0xfd
 80008f6:	bf88      	it	hi
 80008f8:	f5bc 6fe0 	cmphi.w	ip, #1792	; 0x700
 80008fc:	f63f aeaf 	bhi.w	800065e <__aeabi_dmul+0xde>
 8000900:	ebb5 0c03 	subs.w	ip, r5, r3
 8000904:	bf04      	itt	eq
 8000906:	ebb6 0c02 	subseq.w	ip, r6, r2
 800090a:	ea5f 0c50 	movseq.w	ip, r0, lsr #1
 800090e:	f150 0000 	adcs.w	r0, r0, #0
 8000912:	eb41 5104 	adc.w	r1, r1, r4, lsl #20
 8000916:	bd70      	pop	{r4, r5, r6, pc}
 8000918:	f00e 4e00 	and.w	lr, lr, #2147483648	; 0x80000000
 800091c:	ea4e 3111 	orr.w	r1, lr, r1, lsr #12
 8000920:	eb14 045c 	adds.w	r4, r4, ip, lsr #1
 8000924:	bfc2      	ittt	gt
 8000926:	ebd4 050c 	rsbsgt	r5, r4, ip
 800092a:	ea41 5104 	orrgt.w	r1, r1, r4, lsl #20
 800092e:	bd70      	popgt	{r4, r5, r6, pc}
 8000930:	f441 1180 	orr.w	r1, r1, #1048576	; 0x100000
 8000934:	f04f 0e00 	mov.w	lr, #0
 8000938:	3c01      	subs	r4, #1
 800093a:	e690      	b.n	800065e <__aeabi_dmul+0xde>
 800093c:	ea45 0e06 	orr.w	lr, r5, r6
 8000940:	e68d      	b.n	800065e <__aeabi_dmul+0xde>
 8000942:	ea0c 5513 	and.w	r5, ip, r3, lsr #20
 8000946:	ea94 0f0c 	teq	r4, ip
 800094a:	bf08      	it	eq
 800094c:	ea95 0f0c 	teqeq	r5, ip
 8000950:	f43f af3b 	beq.w	80007ca <__aeabi_dmul+0x24a>
 8000954:	ea94 0f0c 	teq	r4, ip
 8000958:	d10a      	bne.n	8000970 <__aeabi_ddiv+0x19c>
 800095a:	ea50 3401 	orrs.w	r4, r0, r1, lsl #12
 800095e:	f47f af34 	bne.w	80007ca <__aeabi_dmul+0x24a>
 8000962:	ea95 0f0c 	teq	r5, ip
 8000966:	f47f af25 	bne.w	80007b4 <__aeabi_dmul+0x234>
 800096a:	4610      	mov	r0, r2
 800096c:	4619      	mov	r1, r3
 800096e:	e72c      	b.n	80007ca <__aeabi_dmul+0x24a>
 8000970:	ea95 0f0c 	teq	r5, ip
 8000974:	d106      	bne.n	8000984 <__aeabi_ddiv+0x1b0>
 8000976:	ea52 3503 	orrs.w	r5, r2, r3, lsl #12
 800097a:	f43f aefd 	beq.w	8000778 <__aeabi_dmul+0x1f8>
 800097e:	4610      	mov	r0, r2
 8000980:	4619      	mov	r1, r3
 8000982:	e722      	b.n	80007ca <__aeabi_dmul+0x24a>
 8000984:	ea50 0641 	orrs.w	r6, r0, r1, lsl #1
 8000988:	bf18      	it	ne
 800098a:	ea52 0643 	orrsne.w	r6, r2, r3, lsl #1
 800098e:	f47f aec5 	bne.w	800071c <__aeabi_dmul+0x19c>
 8000992:	ea50 0441 	orrs.w	r4, r0, r1, lsl #1
 8000996:	f47f af0d 	bne.w	80007b4 <__aeabi_dmul+0x234>
 800099a:	ea52 0543 	orrs.w	r5, r2, r3, lsl #1
 800099e:	f47f aeeb 	bne.w	8000778 <__aeabi_dmul+0x1f8>
 80009a2:	e712      	b.n	80007ca <__aeabi_dmul+0x24a>

080009a4 <__gedf2>:
 80009a4:	f04f 3cff 	mov.w	ip, #4294967295
 80009a8:	e006      	b.n	80009b8 <__cmpdf2+0x4>
 80009aa:	bf00      	nop

080009ac <__ledf2>:
 80009ac:	f04f 0c01 	mov.w	ip, #1
 80009b0:	e002      	b.n	80009b8 <__cmpdf2+0x4>
 80009b2:	bf00      	nop

080009b4 <__cmpdf2>:
 80009b4:	f04f 0c01 	mov.w	ip, #1
 80009b8:	f84d cd04 	str.w	ip, [sp, #-4]!
 80009bc:	ea4f 0c41 	mov.w	ip, r1, lsl #1
 80009c0:	ea7f 5c6c 	mvns.w	ip, ip, asr #21
 80009c4:	ea4f 0c43 	mov.w	ip, r3, lsl #1
 80009c8:	bf18      	it	ne
 80009ca:	ea7f 5c6c 	mvnsne.w	ip, ip, asr #21
 80009ce:	d01b      	beq.n	8000a08 <__cmpdf2+0x54>
 80009d0:	b001      	add	sp, #4
 80009d2:	ea50 0c41 	orrs.w	ip, r0, r1, lsl #1
 80009d6:	bf0c      	ite	eq
 80009d8:	ea52 0c43 	orrseq.w	ip, r2, r3, lsl #1
 80009dc:	ea91 0f03 	teqne	r1, r3
 80009e0:	bf02      	ittt	eq
 80009e2:	ea90 0f02 	teqeq	r0, r2
 80009e6:	2000      	moveq	r0, #0
 80009e8:	4770      	bxeq	lr
 80009ea:	f110 0f00 	cmn.w	r0, #0
 80009ee:	ea91 0f03 	teq	r1, r3
 80009f2:	bf58      	it	pl
 80009f4:	4299      	cmppl	r1, r3
 80009f6:	bf08      	it	eq
 80009f8:	4290      	cmpeq	r0, r2
 80009fa:	bf2c      	ite	cs
 80009fc:	17d8      	asrcs	r0, r3, #31
 80009fe:	ea6f 70e3 	mvncc.w	r0, r3, asr #31
 8000a02:	f040 0001 	orr.w	r0, r0, #1
 8000a06:	4770      	bx	lr
 8000a08:	ea4f 0c41 	mov.w	ip, r1, lsl #1
 8000a0c:	ea7f 5c6c 	mvns.w	ip, ip, asr #21
 8000a10:	d102      	bne.n	8000a18 <__cmpdf2+0x64>
 8000a12:	ea50 3c01 	orrs.w	ip, r0, r1, lsl #12
 8000a16:	d107      	bne.n	8000a28 <__cmpdf2+0x74>
 8000a18:	ea4f 0c43 	mov.w	ip, r3, lsl #1
 8000a1c:	ea7f 5c6c 	mvns.w	ip, ip, asr #21
 8000a20:	d1d6      	bne.n	80009d0 <__cmpdf2+0x1c>
 8000a22:	ea52 3c03 	orrs.w	ip, r2, r3, lsl #12
 8000a26:	d0d3      	beq.n	80009d0 <__cmpdf2+0x1c>
 8000a28:	f85d 0b04 	ldr.w	r0, [sp], #4
 8000a2c:	4770      	bx	lr
 8000a2e:	bf00      	nop

08000a30 <__aeabi_cdrcmple>:
 8000a30:	4684      	mov	ip, r0
 8000a32:	4610      	mov	r0, r2
 8000a34:	4662      	mov	r2, ip
 8000a36:	468c      	mov	ip, r1
 8000a38:	4619      	mov	r1, r3
 8000a3a:	4663      	mov	r3, ip
 8000a3c:	e000      	b.n	8000a40 <__aeabi_cdcmpeq>
 8000a3e:	bf00      	nop

08000a40 <__aeabi_cdcmpeq>:
 8000a40:	b501      	push	{r0, lr}
 8000a42:	f7ff ffb7 	bl	80009b4 <__cmpdf2>
 8000a46:	2800      	cmp	r0, #0
 8000a48:	bf48      	it	mi
 8000a4a:	f110 0f00 	cmnmi.w	r0, #0
 8000a4e:	bd01      	pop	{r0, pc}

08000a50 <__aeabi_dcmpeq>:
 8000a50:	f84d ed08 	str.w	lr, [sp, #-8]!
 8000a54:	f7ff fff4 	bl	8000a40 <__aeabi_cdcmpeq>
 8000a58:	bf0c      	ite	eq
 8000a5a:	2001      	moveq	r0, #1
 8000a5c:	2000      	movne	r0, #0
 8000a5e:	f85d fb08 	ldr.w	pc, [sp], #8
 8000a62:	bf00      	nop

08000a64 <__aeabi_dcmplt>:
 8000a64:	f84d ed08 	str.w	lr, [sp, #-8]!
 8000a68:	f7ff ffea 	bl	8000a40 <__aeabi_cdcmpeq>
 8000a6c:	bf34      	ite	cc
 8000a6e:	2001      	movcc	r0, #1
 8000a70:	2000      	movcs	r0, #0
 8000a72:	f85d fb08 	ldr.w	pc, [sp], #8
 8000a76:	bf00      	nop

08000a78 <__aeabi_dcmple>:
 8000a78:	f84d ed08 	str.w	lr, [sp, #-8]!
 8000a7c:	f7ff ffe0 	bl	8000a40 <__aeabi_cdcmpeq>
 8000a80:	bf94      	ite	ls
 8000a82:	2001      	movls	r0, #1
 8000a84:	2000      	movhi	r0, #0
 8000a86:	f85d fb08 	ldr.w	pc, [sp], #8
 8000a8a:	bf00      	nop

08000a8c <__aeabi_dcmpge>:
 8000a8c:	f84d ed08 	str.w	lr, [sp, #-8]!
 8000a90:	f7ff ffce 	bl	8000a30 <__aeabi_cdrcmple>
 8000a94:	bf94      	ite	ls
 8000a96:	2001      	movls	r0, #1
 8000a98:	2000      	movhi	r0, #0
 8000a9a:	f85d fb08 	ldr.w	pc, [sp], #8
 8000a9e:	bf00      	nop

08000aa0 <__aeabi_dcmpgt>:
 8000aa0:	f84d ed08 	str.w	lr, [sp, #-8]!
 8000aa4:	f7ff ffc4 	bl	8000a30 <__aeabi_cdrcmple>
 8000aa8:	bf34      	ite	cc
 8000aaa:	2001      	movcc	r0, #1
 8000aac:	2000      	movcs	r0, #0
 8000aae:	f85d fb08 	ldr.w	pc, [sp], #8
 8000ab2:	bf00      	nop

08000ab4 <__aeabi_d2iz>:
 8000ab4:	ea4f 0241 	mov.w	r2, r1, lsl #1
 8000ab8:	f512 1200 	adds.w	r2, r2, #2097152	; 0x200000
 8000abc:	d215      	bcs.n	8000aea <__aeabi_d2iz+0x36>
 8000abe:	d511      	bpl.n	8000ae4 <__aeabi_d2iz+0x30>
 8000ac0:	f46f 7378 	mvn.w	r3, #992	; 0x3e0
 8000ac4:	ebb3 5262 	subs.w	r2, r3, r2, asr #21
 8000ac8:	d912      	bls.n	8000af0 <__aeabi_d2iz+0x3c>
 8000aca:	ea4f 23c1 	mov.w	r3, r1, lsl #11
 8000ace:	f043 4300 	orr.w	r3, r3, #2147483648	; 0x80000000
 8000ad2:	ea43 5350 	orr.w	r3, r3, r0, lsr #21
 8000ad6:	f011 4f00 	tst.w	r1, #2147483648	; 0x80000000
 8000ada:	fa23 f002 	lsr.w	r0, r3, r2
 8000ade:	bf18      	it	ne
 8000ae0:	4240      	negne	r0, r0
 8000ae2:	4770      	bx	lr
 8000ae4:	f04f 0000 	mov.w	r0, #0
 8000ae8:	4770      	bx	lr
 8000aea:	ea50 3001 	orrs.w	r0, r0, r1, lsl #12
 8000aee:	d105      	bne.n	8000afc <__aeabi_d2iz+0x48>
 8000af0:	f011 4000 	ands.w	r0, r1, #2147483648	; 0x80000000
 8000af4:	bf08      	it	eq
 8000af6:	f06f 4000 	mvneq.w	r0, #2147483648	; 0x80000000
 8000afa:	4770      	bx	lr
 8000afc:	f04f 0000 	mov.w	r0, #0
 8000b00:	4770      	bx	lr
 8000b02:	bf00      	nop

08000b04 <__aeabi_d2uiz>:
 8000b04:	004a      	lsls	r2, r1, #1
 8000b06:	d211      	bcs.n	8000b2c <__aeabi_d2uiz+0x28>
 8000b08:	f512 1200 	adds.w	r2, r2, #2097152	; 0x200000
 8000b0c:	d211      	bcs.n	8000b32 <__aeabi_d2uiz+0x2e>
 8000b0e:	d50d      	bpl.n	8000b2c <__aeabi_d2uiz+0x28>
 8000b10:	f46f 7378 	mvn.w	r3, #992	; 0x3e0
 8000b14:	ebb3 5262 	subs.w	r2, r3, r2, asr #21
 8000b18:	d40e      	bmi.n	8000b38 <__aeabi_d2uiz+0x34>
 8000b1a:	ea4f 23c1 	mov.w	r3, r1, lsl #11
 8000b1e:	f043 4300 	orr.w	r3, r3, #2147483648	; 0x80000000
 8000b22:	ea43 5350 	orr.w	r3, r3, r0, lsr #21
 8000b26:	fa23 f002 	lsr.w	r0, r3, r2
 8000b2a:	4770      	bx	lr
 8000b2c:	f04f 0000 	mov.w	r0, #0
 8000b30:	4770      	bx	lr
 8000b32:	ea50 3001 	orrs.w	r0, r0, r1, lsl #12
 8000b36:	d102      	bne.n	8000b3e <__aeabi_d2uiz+0x3a>
 8000b38:	f04f 30ff 	mov.w	r0, #4294967295
 8000b3c:	4770      	bx	lr
 8000b3e:	f04f 0000 	mov.w	r0, #0
 8000b42:	4770      	bx	lr

08000b44 <__NVIC_EnableIRQ>:
  \details Enables a device specific interrupt in the NVIC interrupt controller.
  \param [in]      IRQn  Device specific interrupt number.
  \note    IRQn must not be negative.
 */
__STATIC_INLINE void __NVIC_EnableIRQ(IRQn_Type IRQn)
{
 8000b44:	b480      	push	{r7}
 8000b46:	b083      	sub	sp, #12
 8000b48:	af00      	add	r7, sp, #0
 8000b4a:	4603      	mov	r3, r0
 8000b4c:	71fb      	strb	r3, [r7, #7]
  if ((int32_t)(IRQn) >= 0)
 8000b4e:	f997 3007 	ldrsb.w	r3, [r7, #7]
 8000b52:	2b00      	cmp	r3, #0
 8000b54:	db0b      	blt.n	8000b6e <__NVIC_EnableIRQ+0x2a>
  {
    NVIC->ISER[(((uint32_t)IRQn) >> 5UL)] = (uint32_t)(1UL << (((uint32_t)IRQn) & 0x1FUL));
 8000b56:	79fb      	ldrb	r3, [r7, #7]
 8000b58:	f003 021f 	and.w	r2, r3, #31
 8000b5c:	4907      	ldr	r1, [pc, #28]	; (8000b7c <__NVIC_EnableIRQ+0x38>)
 8000b5e:	f997 3007 	ldrsb.w	r3, [r7, #7]
 8000b62:	095b      	lsrs	r3, r3, #5
 8000b64:	2001      	movs	r0, #1
 8000b66:	fa00 f202 	lsl.w	r2, r0, r2
 8000b6a:	f841 2023 	str.w	r2, [r1, r3, lsl #2]
  }
}
 8000b6e:	bf00      	nop
 8000b70:	370c      	adds	r7, #12
 8000b72:	46bd      	mov	sp, r7
 8000b74:	f85d 7b04 	ldr.w	r7, [sp], #4
 8000b78:	4770      	bx	lr
 8000b7a:	bf00      	nop
 8000b7c:	e000e100 	.word	0xe000e100

08000b80 <RCC_Init>:
	while (!(ADC1->SR & ADC_SR_EOC)) {}
	// Установка длины последовательности АЦП
	// Включение АЦП
}

void RCC_Init() {
 8000b80:	b480      	push	{r7}
 8000b82:	af00      	add	r7, sp, #0
	// 1. Set FLASH latency
	// flash latency 3 wait states - table 5 Ref Man
	FLASH->ACR |= FLASH_ACR_LATENCY_3WS;
 8000b84:	4b67      	ldr	r3, [pc, #412]	; (8000d24 <RCC_Init+0x1a4>)
 8000b86:	681b      	ldr	r3, [r3, #0]
 8000b88:	4a66      	ldr	r2, [pc, #408]	; (8000d24 <RCC_Init+0x1a4>)
 8000b8a:	f043 0303 	orr.w	r3, r3, #3
 8000b8e:	6013      	str	r3, [r2, #0]
	// 2. Enable HSE (external clock), wait until HSE is ready
	RCC->CR |= RCC_CR_HSEON;
 8000b90:	4b65      	ldr	r3, [pc, #404]	; (8000d28 <RCC_Init+0x1a8>)
 8000b92:	681b      	ldr	r3, [r3, #0]
 8000b94:	4a64      	ldr	r2, [pc, #400]	; (8000d28 <RCC_Init+0x1a8>)
 8000b96:	f443 3380 	orr.w	r3, r3, #65536	; 0x10000
 8000b9a:	6013      	str	r3, [r2, #0]
	while(!(RCC->CR & RCC_CR_HSERDY)) {}
 8000b9c:	bf00      	nop
 8000b9e:	4b62      	ldr	r3, [pc, #392]	; (8000d28 <RCC_Init+0x1a8>)
 8000ba0:	681b      	ldr	r3, [r3, #0]
 8000ba2:	f403 3300 	and.w	r3, r3, #131072	; 0x20000
 8000ba6:	2b00      	cmp	r3, #0
 8000ba8:	d0f9      	beq.n	8000b9e <RCC_Init+0x1e>
	// 3. Set AHB, APB1, APB2 Prescaler
	// AHB Prescaler = 1
	RCC->CFGR &= ~RCC_CFGR_HPRE_3;
 8000baa:	4b5f      	ldr	r3, [pc, #380]	; (8000d28 <RCC_Init+0x1a8>)
 8000bac:	689b      	ldr	r3, [r3, #8]
 8000bae:	4a5e      	ldr	r2, [pc, #376]	; (8000d28 <RCC_Init+0x1a8>)
 8000bb0:	f023 0380 	bic.w	r3, r3, #128	; 0x80
 8000bb4:	6093      	str	r3, [r2, #8]
	// APB1 Presc = 4 (101)
	RCC->CFGR |= RCC_CFGR_PPRE1_2;
 8000bb6:	4b5c      	ldr	r3, [pc, #368]	; (8000d28 <RCC_Init+0x1a8>)
 8000bb8:	689b      	ldr	r3, [r3, #8]
 8000bba:	4a5b      	ldr	r2, [pc, #364]	; (8000d28 <RCC_Init+0x1a8>)
 8000bbc:	f443 5380 	orr.w	r3, r3, #4096	; 0x1000
 8000bc0:	6093      	str	r3, [r2, #8]
	RCC->CFGR &= ~RCC_CFGR_PPRE1_1;
 8000bc2:	4b59      	ldr	r3, [pc, #356]	; (8000d28 <RCC_Init+0x1a8>)
 8000bc4:	689b      	ldr	r3, [r3, #8]
 8000bc6:	4a58      	ldr	r2, [pc, #352]	; (8000d28 <RCC_Init+0x1a8>)
 8000bc8:	f423 6300 	bic.w	r3, r3, #2048	; 0x800
 8000bcc:	6093      	str	r3, [r2, #8]
	RCC->CFGR |= RCC_CFGR_PPRE1_0;
 8000bce:	4b56      	ldr	r3, [pc, #344]	; (8000d28 <RCC_Init+0x1a8>)
 8000bd0:	689b      	ldr	r3, [r3, #8]
 8000bd2:	4a55      	ldr	r2, [pc, #340]	; (8000d28 <RCC_Init+0x1a8>)
 8000bd4:	f443 6380 	orr.w	r3, r3, #1024	; 0x400
 8000bd8:	6093      	str	r3, [r2, #8]
	// APB2 Presc = 4 (101)
	RCC->CFGR |= RCC_CFGR_PPRE2_2;
 8000bda:	4b53      	ldr	r3, [pc, #332]	; (8000d28 <RCC_Init+0x1a8>)
 8000bdc:	689b      	ldr	r3, [r3, #8]
 8000bde:	4a52      	ldr	r2, [pc, #328]	; (8000d28 <RCC_Init+0x1a8>)
 8000be0:	f443 4300 	orr.w	r3, r3, #32768	; 0x8000
 8000be4:	6093      	str	r3, [r2, #8]
	RCC->CFGR &= ~RCC_CFGR_PPRE2_1;
 8000be6:	4b50      	ldr	r3, [pc, #320]	; (8000d28 <RCC_Init+0x1a8>)
 8000be8:	689b      	ldr	r3, [r3, #8]
 8000bea:	4a4f      	ldr	r2, [pc, #316]	; (8000d28 <RCC_Init+0x1a8>)
 8000bec:	f423 4380 	bic.w	r3, r3, #16384	; 0x4000
 8000bf0:	6093      	str	r3, [r2, #8]
	RCC->CFGR |= RCC_CFGR_PPRE2_0;
 8000bf2:	4b4d      	ldr	r3, [pc, #308]	; (8000d28 <RCC_Init+0x1a8>)
 8000bf4:	689b      	ldr	r3, [r3, #8]
 8000bf6:	4a4c      	ldr	r2, [pc, #304]	; (8000d28 <RCC_Init+0x1a8>)
 8000bf8:	f443 5300 	orr.w	r3, r3, #8192	; 0x2000
 8000bfc:	6093      	str	r3, [r2, #8]
	// 4. Config PLL
	// 4.1. Set PLL clock source
	RCC->PLLCFGR |= RCC_PLLCFGR_PLLSRC_HSE;
 8000bfe:	4b4a      	ldr	r3, [pc, #296]	; (8000d28 <RCC_Init+0x1a8>)
 8000c00:	685b      	ldr	r3, [r3, #4]
 8000c02:	4a49      	ldr	r2, [pc, #292]	; (8000d28 <RCC_Init+0x1a8>)
 8000c04:	f443 0380 	orr.w	r3, r3, #4194304	; 0x400000
 8000c08:	6053      	str	r3, [r2, #4]
	// 4.2. Set PLL M, N and P prescaler
	// M = 8 => 001000
	RCC->PLLCFGR |= RCC_PLLCFGR_PLLM_3;
 8000c0a:	4b47      	ldr	r3, [pc, #284]	; (8000d28 <RCC_Init+0x1a8>)
 8000c0c:	685b      	ldr	r3, [r3, #4]
 8000c0e:	4a46      	ldr	r2, [pc, #280]	; (8000d28 <RCC_Init+0x1a8>)
 8000c10:	f043 0308 	orr.w	r3, r3, #8
 8000c14:	6053      	str	r3, [r2, #4]
	RCC->PLLCFGR &= ~RCC_PLLCFGR_PLLM_0;
 8000c16:	4b44      	ldr	r3, [pc, #272]	; (8000d28 <RCC_Init+0x1a8>)
 8000c18:	685b      	ldr	r3, [r3, #4]
 8000c1a:	4a43      	ldr	r2, [pc, #268]	; (8000d28 <RCC_Init+0x1a8>)
 8000c1c:	f023 0301 	bic.w	r3, r3, #1
 8000c20:	6053      	str	r3, [r2, #4]
	RCC->PLLCFGR &= ~RCC_PLLCFGR_PLLM_1;
 8000c22:	4b41      	ldr	r3, [pc, #260]	; (8000d28 <RCC_Init+0x1a8>)
 8000c24:	685b      	ldr	r3, [r3, #4]
 8000c26:	4a40      	ldr	r2, [pc, #256]	; (8000d28 <RCC_Init+0x1a8>)
 8000c28:	f023 0302 	bic.w	r3, r3, #2
 8000c2c:	6053      	str	r3, [r2, #4]
	RCC->PLLCFGR &= ~RCC_PLLCFGR_PLLM_2;
 8000c2e:	4b3e      	ldr	r3, [pc, #248]	; (8000d28 <RCC_Init+0x1a8>)
 8000c30:	685b      	ldr	r3, [r3, #4]
 8000c32:	4a3d      	ldr	r2, [pc, #244]	; (8000d28 <RCC_Init+0x1a8>)
 8000c34:	f023 0304 	bic.w	r3, r3, #4
 8000c38:	6053      	str	r3, [r2, #4]
	RCC->PLLCFGR &= ~RCC_PLLCFGR_PLLM_4;
 8000c3a:	4b3b      	ldr	r3, [pc, #236]	; (8000d28 <RCC_Init+0x1a8>)
 8000c3c:	685b      	ldr	r3, [r3, #4]
 8000c3e:	4a3a      	ldr	r2, [pc, #232]	; (8000d28 <RCC_Init+0x1a8>)
 8000c40:	f023 0310 	bic.w	r3, r3, #16
 8000c44:	6053      	str	r3, [r2, #4]
	RCC->PLLCFGR &= ~RCC_PLLCFGR_PLLM_5;
 8000c46:	4b38      	ldr	r3, [pc, #224]	; (8000d28 <RCC_Init+0x1a8>)
 8000c48:	685b      	ldr	r3, [r3, #4]
 8000c4a:	4a37      	ldr	r2, [pc, #220]	; (8000d28 <RCC_Init+0x1a8>)
 8000c4c:	f023 0320 	bic.w	r3, r3, #32
 8000c50:	6053      	str	r3, [r2, #4]
	// N = 100 =>  001100100
	RCC->PLLCFGR &= ~RCC_PLLCFGR_PLLN_8;
 8000c52:	4b35      	ldr	r3, [pc, #212]	; (8000d28 <RCC_Init+0x1a8>)
 8000c54:	685b      	ldr	r3, [r3, #4]
 8000c56:	4a34      	ldr	r2, [pc, #208]	; (8000d28 <RCC_Init+0x1a8>)
 8000c58:	f423 4380 	bic.w	r3, r3, #16384	; 0x4000
 8000c5c:	6053      	str	r3, [r2, #4]
	RCC->PLLCFGR &= ~RCC_PLLCFGR_PLLN_7;
 8000c5e:	4b32      	ldr	r3, [pc, #200]	; (8000d28 <RCC_Init+0x1a8>)
 8000c60:	685b      	ldr	r3, [r3, #4]
 8000c62:	4a31      	ldr	r2, [pc, #196]	; (8000d28 <RCC_Init+0x1a8>)
 8000c64:	f423 5300 	bic.w	r3, r3, #8192	; 0x2000
 8000c68:	6053      	str	r3, [r2, #4]
	RCC->PLLCFGR |= RCC_PLLCFGR_PLLN_6;
 8000c6a:	4b2f      	ldr	r3, [pc, #188]	; (8000d28 <RCC_Init+0x1a8>)
 8000c6c:	685b      	ldr	r3, [r3, #4]
 8000c6e:	4a2e      	ldr	r2, [pc, #184]	; (8000d28 <RCC_Init+0x1a8>)
 8000c70:	f443 5380 	orr.w	r3, r3, #4096	; 0x1000
 8000c74:	6053      	str	r3, [r2, #4]
	RCC->PLLCFGR |= RCC_PLLCFGR_PLLN_5;
 8000c76:	4b2c      	ldr	r3, [pc, #176]	; (8000d28 <RCC_Init+0x1a8>)
 8000c78:	685b      	ldr	r3, [r3, #4]
 8000c7a:	4a2b      	ldr	r2, [pc, #172]	; (8000d28 <RCC_Init+0x1a8>)
 8000c7c:	f443 6300 	orr.w	r3, r3, #2048	; 0x800
 8000c80:	6053      	str	r3, [r2, #4]
	RCC->PLLCFGR &= ~RCC_PLLCFGR_PLLN_4;
 8000c82:	4b29      	ldr	r3, [pc, #164]	; (8000d28 <RCC_Init+0x1a8>)
 8000c84:	685b      	ldr	r3, [r3, #4]
 8000c86:	4a28      	ldr	r2, [pc, #160]	; (8000d28 <RCC_Init+0x1a8>)
 8000c88:	f423 6380 	bic.w	r3, r3, #1024	; 0x400
 8000c8c:	6053      	str	r3, [r2, #4]
	RCC->PLLCFGR &= ~RCC_PLLCFGR_PLLN_3;
 8000c8e:	4b26      	ldr	r3, [pc, #152]	; (8000d28 <RCC_Init+0x1a8>)
 8000c90:	685b      	ldr	r3, [r3, #4]
 8000c92:	4a25      	ldr	r2, [pc, #148]	; (8000d28 <RCC_Init+0x1a8>)
 8000c94:	f423 7300 	bic.w	r3, r3, #512	; 0x200
 8000c98:	6053      	str	r3, [r2, #4]
	RCC->PLLCFGR |= RCC_PLLCFGR_PLLN_2;
 8000c9a:	4b23      	ldr	r3, [pc, #140]	; (8000d28 <RCC_Init+0x1a8>)
 8000c9c:	685b      	ldr	r3, [r3, #4]
 8000c9e:	4a22      	ldr	r2, [pc, #136]	; (8000d28 <RCC_Init+0x1a8>)
 8000ca0:	f443 7380 	orr.w	r3, r3, #256	; 0x100
 8000ca4:	6053      	str	r3, [r2, #4]
	RCC->PLLCFGR &= ~RCC_PLLCFGR_PLLN_1;
 8000ca6:	4b20      	ldr	r3, [pc, #128]	; (8000d28 <RCC_Init+0x1a8>)
 8000ca8:	685b      	ldr	r3, [r3, #4]
 8000caa:	4a1f      	ldr	r2, [pc, #124]	; (8000d28 <RCC_Init+0x1a8>)
 8000cac:	f023 0380 	bic.w	r3, r3, #128	; 0x80
 8000cb0:	6053      	str	r3, [r2, #4]
	RCC->PLLCFGR &= ~RCC_PLLCFGR_PLLN_0;
 8000cb2:	4b1d      	ldr	r3, [pc, #116]	; (8000d28 <RCC_Init+0x1a8>)
 8000cb4:	685b      	ldr	r3, [r3, #4]
 8000cb6:	4a1c      	ldr	r2, [pc, #112]	; (8000d28 <RCC_Init+0x1a8>)
 8000cb8:	f023 0340 	bic.w	r3, r3, #64	; 0x40
 8000cbc:	6053      	str	r3, [r2, #4]
	// P = 2 => 00
	RCC->PLLCFGR &= ~RCC_PLLCFGR_PLLP_1;
 8000cbe:	4b1a      	ldr	r3, [pc, #104]	; (8000d28 <RCC_Init+0x1a8>)
 8000cc0:	685b      	ldr	r3, [r3, #4]
 8000cc2:	4a19      	ldr	r2, [pc, #100]	; (8000d28 <RCC_Init+0x1a8>)
 8000cc4:	f423 3300 	bic.w	r3, r3, #131072	; 0x20000
 8000cc8:	6053      	str	r3, [r2, #4]
	RCC->PLLCFGR &= ~RCC_PLLCFGR_PLLP_0;
 8000cca:	4b17      	ldr	r3, [pc, #92]	; (8000d28 <RCC_Init+0x1a8>)
 8000ccc:	685b      	ldr	r3, [r3, #4]
 8000cce:	4a16      	ldr	r2, [pc, #88]	; (8000d28 <RCC_Init+0x1a8>)
 8000cd0:	f423 3380 	bic.w	r3, r3, #65536	; 0x10000
 8000cd4:	6053      	str	r3, [r2, #4]
	// 4.3. Enable PLL. Wait until PLL start
	RCC->CR |= RCC_CR_PLLON;
 8000cd6:	4b14      	ldr	r3, [pc, #80]	; (8000d28 <RCC_Init+0x1a8>)
 8000cd8:	681b      	ldr	r3, [r3, #0]
 8000cda:	4a13      	ldr	r2, [pc, #76]	; (8000d28 <RCC_Init+0x1a8>)
 8000cdc:	f043 7380 	orr.w	r3, r3, #16777216	; 0x1000000
 8000ce0:	6013      	str	r3, [r2, #0]
	while(!(RCC->CR & RCC_CR_PLLRDY)) {}
 8000ce2:	bf00      	nop
 8000ce4:	4b10      	ldr	r3, [pc, #64]	; (8000d28 <RCC_Init+0x1a8>)
 8000ce6:	681b      	ldr	r3, [r3, #0]
 8000ce8:	f003 7300 	and.w	r3, r3, #33554432	; 0x2000000
 8000cec:	2b00      	cmp	r3, #0
 8000cee:	d0f9      	beq.n	8000ce4 <RCC_Init+0x164>
	// 5. Set Main clock switch to PLL source
	// PLL_P => 10 (System clock switch)
	RCC->CFGR |= RCC_CFGR_SW_1;
 8000cf0:	4b0d      	ldr	r3, [pc, #52]	; (8000d28 <RCC_Init+0x1a8>)
 8000cf2:	689b      	ldr	r3, [r3, #8]
 8000cf4:	4a0c      	ldr	r2, [pc, #48]	; (8000d28 <RCC_Init+0x1a8>)
 8000cf6:	f043 0302 	orr.w	r3, r3, #2
 8000cfa:	6093      	str	r3, [r2, #8]
	RCC->CFGR &= ~RCC_CFGR_SW_0;
 8000cfc:	4b0a      	ldr	r3, [pc, #40]	; (8000d28 <RCC_Init+0x1a8>)
 8000cfe:	689b      	ldr	r3, [r3, #8]
 8000d00:	4a09      	ldr	r2, [pc, #36]	; (8000d28 <RCC_Init+0x1a8>)
 8000d02:	f023 0301 	bic.w	r3, r3, #1
 8000d06:	6093      	str	r3, [r2, #8]
	// check that the switch moves to correct source - wait
	while (!(RCC->CFGR & (RCC_CFGR_SWS_1 & (~RCC_CFGR_SWS_0)))) {}
 8000d08:	bf00      	nop
 8000d0a:	4b07      	ldr	r3, [pc, #28]	; (8000d28 <RCC_Init+0x1a8>)
 8000d0c:	689b      	ldr	r3, [r3, #8]
 8000d0e:	f003 0308 	and.w	r3, r3, #8
 8000d12:	2b00      	cmp	r3, #0
 8000d14:	d0f9      	beq.n	8000d0a <RCC_Init+0x18a>
}
 8000d16:	bf00      	nop
 8000d18:	bf00      	nop
 8000d1a:	46bd      	mov	sp, r7
 8000d1c:	f85d 7b04 	ldr.w	r7, [sp], #4
 8000d20:	4770      	bx	lr
 8000d22:	bf00      	nop
 8000d24:	40023c00 	.word	0x40023c00
 8000d28:	40023800 	.word	0x40023800

08000d2c <DAC_MODER_Init>:

void DAC_MODER_Init() {
 8000d2c:	b480      	push	{r7}
 8000d2e:	af00      	add	r7, sp, #0
	// PA4
	RCC->AHB1ENR |= RCC_AHB1ENR_GPIOAEN;
 8000d30:	4b0b      	ldr	r3, [pc, #44]	; (8000d60 <DAC_MODER_Init+0x34>)
 8000d32:	6b1b      	ldr	r3, [r3, #48]	; 0x30
 8000d34:	4a0a      	ldr	r2, [pc, #40]	; (8000d60 <DAC_MODER_Init+0x34>)
 8000d36:	f043 0301 	orr.w	r3, r3, #1
 8000d3a:	6313      	str	r3, [r2, #48]	; 0x30
	// PA4 mode: Analog
	GPIOA->MODER |= (1U << 8);
 8000d3c:	4b09      	ldr	r3, [pc, #36]	; (8000d64 <DAC_MODER_Init+0x38>)
 8000d3e:	681b      	ldr	r3, [r3, #0]
 8000d40:	4a08      	ldr	r2, [pc, #32]	; (8000d64 <DAC_MODER_Init+0x38>)
 8000d42:	f443 7380 	orr.w	r3, r3, #256	; 0x100
 8000d46:	6013      	str	r3, [r2, #0]
	GPIOA->MODER |= (1U << 9);
 8000d48:	4b06      	ldr	r3, [pc, #24]	; (8000d64 <DAC_MODER_Init+0x38>)
 8000d4a:	681b      	ldr	r3, [r3, #0]
 8000d4c:	4a05      	ldr	r2, [pc, #20]	; (8000d64 <DAC_MODER_Init+0x38>)
 8000d4e:	f443 7300 	orr.w	r3, r3, #512	; 0x200
 8000d52:	6013      	str	r3, [r2, #0]
}
 8000d54:	bf00      	nop
 8000d56:	46bd      	mov	sp, r7
 8000d58:	f85d 7b04 	ldr.w	r7, [sp], #4
 8000d5c:	4770      	bx	lr
 8000d5e:	bf00      	nop
 8000d60:	40023800 	.word	0x40023800
 8000d64:	40020000 	.word	0x40020000

08000d68 <DAC_Init>:

void DAC_Init() {
 8000d68:	b580      	push	{r7, lr}
 8000d6a:	af00      	add	r7, sp, #0
	DAC_MODER_Init();
 8000d6c:	f7ff ffde 	bl	8000d2c <DAC_MODER_Init>
	RCC->APB1ENR |= RCC_APB1ENR_DACEN;
 8000d70:	4b08      	ldr	r3, [pc, #32]	; (8000d94 <DAC_Init+0x2c>)
 8000d72:	6c1b      	ldr	r3, [r3, #64]	; 0x40
 8000d74:	4a07      	ldr	r2, [pc, #28]	; (8000d94 <DAC_Init+0x2c>)
 8000d76:	f043 5300 	orr.w	r3, r3, #536870912	; 0x20000000
 8000d7a:	6413      	str	r3, [r2, #64]	; 0x40
	// channel 1
	DAC->CR |= DAC_CR_EN1;
 8000d7c:	4b06      	ldr	r3, [pc, #24]	; (8000d98 <DAC_Init+0x30>)
 8000d7e:	681b      	ldr	r3, [r3, #0]
 8000d80:	4a05      	ldr	r2, [pc, #20]	; (8000d98 <DAC_Init+0x30>)
 8000d82:	f043 0301 	orr.w	r3, r3, #1
 8000d86:	6013      	str	r3, [r2, #0]
	// upload data to DAC
	DAC->DHR12R1 = 0xFFF;
 8000d88:	4b03      	ldr	r3, [pc, #12]	; (8000d98 <DAC_Init+0x30>)
 8000d8a:	f640 72ff 	movw	r2, #4095	; 0xfff
 8000d8e:	609a      	str	r2, [r3, #8]
}
 8000d90:	bf00      	nop
 8000d92:	bd80      	pop	{r7, pc}
 8000d94:	40023800 	.word	0x40023800
 8000d98:	40007400 	.word	0x40007400

08000d9c <USART2_MODER_Init>:

void USART2_MODER_Init() {
 8000d9c:	b480      	push	{r7}
 8000d9e:	af00      	add	r7, sp, #0
	RCC->AHB1ENR |= RCC_AHB1ENR_GPIOAEN;
 8000da0:	4b29      	ldr	r3, [pc, #164]	; (8000e48 <USART2_MODER_Init+0xac>)
 8000da2:	6b1b      	ldr	r3, [r3, #48]	; 0x30
 8000da4:	4a28      	ldr	r2, [pc, #160]	; (8000e48 <USART2_MODER_Init+0xac>)
 8000da6:	f043 0301 	orr.w	r3, r3, #1
 8000daa:	6313      	str	r3, [r2, #48]	; 0x30
	// USART2
	// PA2 mode: AF (10)
	GPIOA->MODER |= (1U << 5);
 8000dac:	4b27      	ldr	r3, [pc, #156]	; (8000e4c <USART2_MODER_Init+0xb0>)
 8000dae:	681b      	ldr	r3, [r3, #0]
 8000db0:	4a26      	ldr	r2, [pc, #152]	; (8000e4c <USART2_MODER_Init+0xb0>)
 8000db2:	f043 0320 	orr.w	r3, r3, #32
 8000db6:	6013      	str	r3, [r2, #0]
	GPIOA->MODER &= ~(1U << 4);
 8000db8:	4b24      	ldr	r3, [pc, #144]	; (8000e4c <USART2_MODER_Init+0xb0>)
 8000dba:	681b      	ldr	r3, [r3, #0]
 8000dbc:	4a23      	ldr	r2, [pc, #140]	; (8000e4c <USART2_MODER_Init+0xb0>)
 8000dbe:	f023 0310 	bic.w	r3, r3, #16
 8000dc2:	6013      	str	r3, [r2, #0]
	// PA3 mode: AF (10)
	GPIOA->MODER |= (1U << 7);
 8000dc4:	4b21      	ldr	r3, [pc, #132]	; (8000e4c <USART2_MODER_Init+0xb0>)
 8000dc6:	681b      	ldr	r3, [r3, #0]
 8000dc8:	4a20      	ldr	r2, [pc, #128]	; (8000e4c <USART2_MODER_Init+0xb0>)
 8000dca:	f043 0380 	orr.w	r3, r3, #128	; 0x80
 8000dce:	6013      	str	r3, [r2, #0]
	GPIOA->MODER &= ~(1U << 6);
 8000dd0:	4b1e      	ldr	r3, [pc, #120]	; (8000e4c <USART2_MODER_Init+0xb0>)
 8000dd2:	681b      	ldr	r3, [r3, #0]
 8000dd4:	4a1d      	ldr	r2, [pc, #116]	; (8000e4c <USART2_MODER_Init+0xb0>)
 8000dd6:	f023 0340 	bic.w	r3, r3, #64	; 0x40
 8000dda:	6013      	str	r3, [r2, #0]

	// PA2 AFRL=AFR[0] 0111: AF07 (USART2_TX)
	GPIOA->AFR[0] &= ~(1U << 11);
 8000ddc:	4b1b      	ldr	r3, [pc, #108]	; (8000e4c <USART2_MODER_Init+0xb0>)
 8000dde:	6a1b      	ldr	r3, [r3, #32]
 8000de0:	4a1a      	ldr	r2, [pc, #104]	; (8000e4c <USART2_MODER_Init+0xb0>)
 8000de2:	f423 6300 	bic.w	r3, r3, #2048	; 0x800
 8000de6:	6213      	str	r3, [r2, #32]
	GPIOA->AFR[0] |= (1U << 10);
 8000de8:	4b18      	ldr	r3, [pc, #96]	; (8000e4c <USART2_MODER_Init+0xb0>)
 8000dea:	6a1b      	ldr	r3, [r3, #32]
 8000dec:	4a17      	ldr	r2, [pc, #92]	; (8000e4c <USART2_MODER_Init+0xb0>)
 8000dee:	f443 6380 	orr.w	r3, r3, #1024	; 0x400
 8000df2:	6213      	str	r3, [r2, #32]
	GPIOA->AFR[0] |= (1U << 9);
 8000df4:	4b15      	ldr	r3, [pc, #84]	; (8000e4c <USART2_MODER_Init+0xb0>)
 8000df6:	6a1b      	ldr	r3, [r3, #32]
 8000df8:	4a14      	ldr	r2, [pc, #80]	; (8000e4c <USART2_MODER_Init+0xb0>)
 8000dfa:	f443 7300 	orr.w	r3, r3, #512	; 0x200
 8000dfe:	6213      	str	r3, [r2, #32]
	GPIOA->AFR[0] |= (1U << 8);
 8000e00:	4b12      	ldr	r3, [pc, #72]	; (8000e4c <USART2_MODER_Init+0xb0>)
 8000e02:	6a1b      	ldr	r3, [r3, #32]
 8000e04:	4a11      	ldr	r2, [pc, #68]	; (8000e4c <USART2_MODER_Init+0xb0>)
 8000e06:	f443 7380 	orr.w	r3, r3, #256	; 0x100
 8000e0a:	6213      	str	r3, [r2, #32]
	// PA3 AF: AF07 (0111) (USART2_RX)
	GPIOA->AFR[0] &= ~(1U << 15);
 8000e0c:	4b0f      	ldr	r3, [pc, #60]	; (8000e4c <USART2_MODER_Init+0xb0>)
 8000e0e:	6a1b      	ldr	r3, [r3, #32]
 8000e10:	4a0e      	ldr	r2, [pc, #56]	; (8000e4c <USART2_MODER_Init+0xb0>)
 8000e12:	f423 4300 	bic.w	r3, r3, #32768	; 0x8000
 8000e16:	6213      	str	r3, [r2, #32]
	GPIOA->AFR[0] |= (1U << 14);
 8000e18:	4b0c      	ldr	r3, [pc, #48]	; (8000e4c <USART2_MODER_Init+0xb0>)
 8000e1a:	6a1b      	ldr	r3, [r3, #32]
 8000e1c:	4a0b      	ldr	r2, [pc, #44]	; (8000e4c <USART2_MODER_Init+0xb0>)
 8000e1e:	f443 4380 	orr.w	r3, r3, #16384	; 0x4000
 8000e22:	6213      	str	r3, [r2, #32]
	GPIOA->AFR[0] |= (1U << 13);
 8000e24:	4b09      	ldr	r3, [pc, #36]	; (8000e4c <USART2_MODER_Init+0xb0>)
 8000e26:	6a1b      	ldr	r3, [r3, #32]
 8000e28:	4a08      	ldr	r2, [pc, #32]	; (8000e4c <USART2_MODER_Init+0xb0>)
 8000e2a:	f443 5300 	orr.w	r3, r3, #8192	; 0x2000
 8000e2e:	6213      	str	r3, [r2, #32]
	GPIOA->AFR[0] |= (1U << 12);
 8000e30:	4b06      	ldr	r3, [pc, #24]	; (8000e4c <USART2_MODER_Init+0xb0>)
 8000e32:	6a1b      	ldr	r3, [r3, #32]
 8000e34:	4a05      	ldr	r2, [pc, #20]	; (8000e4c <USART2_MODER_Init+0xb0>)
 8000e36:	f443 5380 	orr.w	r3, r3, #4096	; 0x1000
 8000e3a:	6213      	str	r3, [r2, #32]
}
 8000e3c:	bf00      	nop
 8000e3e:	46bd      	mov	sp, r7
 8000e40:	f85d 7b04 	ldr.w	r7, [sp], #4
 8000e44:	4770      	bx	lr
 8000e46:	bf00      	nop
 8000e48:	40023800 	.word	0x40023800
 8000e4c:	40020000 	.word	0x40020000

08000e50 <USART2_Init>:

void USART2_Init() {
 8000e50:	b580      	push	{r7, lr}
 8000e52:	af00      	add	r7, sp, #0
	USART2_MODER_Init();
 8000e54:	f7ff ffa2 	bl	8000d9c <USART2_MODER_Init>
	RCC->APB1ENR |= RCC_APB1ENR_USART2EN;
 8000e58:	4b13      	ldr	r3, [pc, #76]	; (8000ea8 <USART2_Init+0x58>)
 8000e5a:	6c1b      	ldr	r3, [r3, #64]	; 0x40
 8000e5c:	4a12      	ldr	r2, [pc, #72]	; (8000ea8 <USART2_Init+0x58>)
 8000e5e:	f443 3300 	orr.w	r3, r3, #131072	; 0x20000
 8000e62:	6413      	str	r3, [r2, #64]	; 0x40
	// transmit enable, receive enable
	USART2->CR1 |= USART_CR1_TE;
 8000e64:	4b11      	ldr	r3, [pc, #68]	; (8000eac <USART2_Init+0x5c>)
 8000e66:	68db      	ldr	r3, [r3, #12]
 8000e68:	4a10      	ldr	r2, [pc, #64]	; (8000eac <USART2_Init+0x5c>)
 8000e6a:	f043 0308 	orr.w	r3, r3, #8
 8000e6e:	60d3      	str	r3, [r2, #12]
	USART2->CR1 |= USART_CR1_RE;
 8000e70:	4b0e      	ldr	r3, [pc, #56]	; (8000eac <USART2_Init+0x5c>)
 8000e72:	68db      	ldr	r3, [r3, #12]
 8000e74:	4a0d      	ldr	r2, [pc, #52]	; (8000eac <USART2_Init+0x5c>)
 8000e76:	f043 0304 	orr.w	r3, r3, #4
 8000e7a:	60d3      	str	r3, [r2, #12]
	// baudrate
	USART2->BRR = APB1_FREQ / BAUDRATE;
 8000e7c:	4b0b      	ldr	r3, [pc, #44]	; (8000eac <USART2_Init+0x5c>)
 8000e7e:	f640 222c 	movw	r2, #2604	; 0xa2c
 8000e82:	609a      	str	r2, [r3, #8]
	// RXNE interrupt enable
	USART2->CR1 |= USART_CR1_RXNEIE;
 8000e84:	4b09      	ldr	r3, [pc, #36]	; (8000eac <USART2_Init+0x5c>)
 8000e86:	68db      	ldr	r3, [r3, #12]
 8000e88:	4a08      	ldr	r2, [pc, #32]	; (8000eac <USART2_Init+0x5c>)
 8000e8a:	f043 0320 	orr.w	r3, r3, #32
 8000e8e:	60d3      	str	r3, [r2, #12]
	// MVIC USART2 interrupt function
	NVIC_EnableIRQ(USART2_IRQn);
 8000e90:	2026      	movs	r0, #38	; 0x26
 8000e92:	f7ff fe57 	bl	8000b44 <__NVIC_EnableIRQ>
	// USART2 enable
	USART2->CR1 |= USART_CR1_UE;
 8000e96:	4b05      	ldr	r3, [pc, #20]	; (8000eac <USART2_Init+0x5c>)
 8000e98:	68db      	ldr	r3, [r3, #12]
 8000e9a:	4a04      	ldr	r2, [pc, #16]	; (8000eac <USART2_Init+0x5c>)
 8000e9c:	f443 5300 	orr.w	r3, r3, #8192	; 0x2000
 8000ea0:	60d3      	str	r3, [r2, #12]
}
 8000ea2:	bf00      	nop
 8000ea4:	bd80      	pop	{r7, pc}
 8000ea6:	bf00      	nop
 8000ea8:	40023800 	.word	0x40023800
 8000eac:	40004400 	.word	0x40004400

08000eb0 <TIM6_Init>:

// base timer
void TIM6_Init() {
 8000eb0:	b580      	push	{r7, lr}
 8000eb2:	af00      	add	r7, sp, #0
	// вкл тактирование таймера, APB1
	RCC->APB1ENR |= RCC_APB1ENR_TIM6EN;
 8000eb4:	4b0d      	ldr	r3, [pc, #52]	; (8000eec <TIM6_Init+0x3c>)
 8000eb6:	6c1b      	ldr	r3, [r3, #64]	; 0x40
 8000eb8:	4a0c      	ldr	r2, [pc, #48]	; (8000eec <TIM6_Init+0x3c>)
 8000eba:	f043 0310 	orr.w	r3, r3, #16
 8000ebe:	6413      	str	r3, [r2, #64]	; 0x40
	// у base timer нет gpio
	// APB1 Prescaler = 4 из RCC init
	// настройка Prescaler, ARR
	// TIM6_FREQ = APB1_TIMER_FREQ/(PSC+1)(ARR+1)
	// (PSC+1)(ARR+1) = 50000000/2000=25000=500*50
	TIM6->PSC = (uint32_t)(499);
 8000ec0:	4b0b      	ldr	r3, [pc, #44]	; (8000ef0 <TIM6_Init+0x40>)
 8000ec2:	f240 12f3 	movw	r2, #499	; 0x1f3
 8000ec6:	629a      	str	r2, [r3, #40]	; 0x28
	TIM6->ARR = (uint32_t)(49);
 8000ec8:	4b09      	ldr	r3, [pc, #36]	; (8000ef0 <TIM6_Init+0x40>)
 8000eca:	2231      	movs	r2, #49	; 0x31
 8000ecc:	62da      	str	r2, [r3, #44]	; 0x2c
	TIM6->DIER |= TIM6_DIER_UIE; // Update event interrupt enable
 8000ece:	4b08      	ldr	r3, [pc, #32]	; (8000ef0 <TIM6_Init+0x40>)
 8000ed0:	4a07      	ldr	r2, [pc, #28]	; (8000ef0 <TIM6_Init+0x40>)
 8000ed2:	68db      	ldr	r3, [r3, #12]
 8000ed4:	60d3      	str	r3, [r2, #12]
	NVIC_EnableIRQ(TIM6_DAC_IRQn); // настроить прерывания
 8000ed6:	2036      	movs	r0, #54	; 0x36
 8000ed8:	f7ff fe34 	bl	8000b44 <__NVIC_EnableIRQ>
	TIM6->CR1 |= TIM_CR1_CEN; // включить счётчик
 8000edc:	4b04      	ldr	r3, [pc, #16]	; (8000ef0 <TIM6_Init+0x40>)
 8000ede:	681b      	ldr	r3, [r3, #0]
 8000ee0:	4a03      	ldr	r2, [pc, #12]	; (8000ef0 <TIM6_Init+0x40>)
 8000ee2:	f043 0301 	orr.w	r3, r3, #1
 8000ee6:	6013      	str	r3, [r2, #0]
}
 8000ee8:	bf00      	nop
 8000eea:	bd80      	pop	{r7, pc}
 8000eec:	40023800 	.word	0x40023800
 8000ef0:	40001000 	.word	0x40001000

08000ef4 <USART2_IRQHandler>:
uint8_t dataLen = 2; // frequency, amplitude. What is amplitude if we have 0-3.3V interval? 0-3 for amplitude 1.5?
uint8_t dataCounter = 0;
volatile uint8_t isDataRead = 0;
volatile uint8_t buf[] = {'a', 'b'};
uint8_t buf2[] = {'a', 'b'};
void USART2_IRQHandler() {
 8000ef4:	b480      	push	{r7}
 8000ef6:	af00      	add	r7, sp, #0
	// receive
	if (USART2->SR & USART_SR_RXNE) {
 8000ef8:	4b15      	ldr	r3, [pc, #84]	; (8000f50 <USART2_IRQHandler+0x5c>)
 8000efa:	681b      	ldr	r3, [r3, #0]
 8000efc:	f003 0320 	and.w	r3, r3, #32
 8000f00:	2b00      	cmp	r3, #0
 8000f02:	d013      	beq.n	8000f2c <USART2_IRQHandler+0x38>
		buf[dataCounter] = (uint8_t)(USART2->DR & 0xFF);
 8000f04:	4b12      	ldr	r3, [pc, #72]	; (8000f50 <USART2_IRQHandler+0x5c>)
 8000f06:	6859      	ldr	r1, [r3, #4]
 8000f08:	4b12      	ldr	r3, [pc, #72]	; (8000f54 <USART2_IRQHandler+0x60>)
 8000f0a:	781b      	ldrb	r3, [r3, #0]
 8000f0c:	461a      	mov	r2, r3
 8000f0e:	b2c9      	uxtb	r1, r1
 8000f10:	4b11      	ldr	r3, [pc, #68]	; (8000f58 <USART2_IRQHandler+0x64>)
 8000f12:	5499      	strb	r1, [r3, r2]
		// снять RXNE
		USART2->SR &= ~USART_SR_RXNE;
 8000f14:	4b0e      	ldr	r3, [pc, #56]	; (8000f50 <USART2_IRQHandler+0x5c>)
 8000f16:	681b      	ldr	r3, [r3, #0]
 8000f18:	4a0d      	ldr	r2, [pc, #52]	; (8000f50 <USART2_IRQHandler+0x5c>)
 8000f1a:	f023 0320 	bic.w	r3, r3, #32
 8000f1e:	6013      	str	r3, [r2, #0]
		dataCounter += 1; // считали ещё один бит
 8000f20:	4b0c      	ldr	r3, [pc, #48]	; (8000f54 <USART2_IRQHandler+0x60>)
 8000f22:	781b      	ldrb	r3, [r3, #0]
 8000f24:	3301      	adds	r3, #1
 8000f26:	b2da      	uxtb	r2, r3
 8000f28:	4b0a      	ldr	r3, [pc, #40]	; (8000f54 <USART2_IRQHandler+0x60>)
 8000f2a:	701a      	strb	r2, [r3, #0]
	}
	if (dataCounter >= dataLen) {
 8000f2c:	4b09      	ldr	r3, [pc, #36]	; (8000f54 <USART2_IRQHandler+0x60>)
 8000f2e:	781a      	ldrb	r2, [r3, #0]
 8000f30:	4b0a      	ldr	r3, [pc, #40]	; (8000f5c <USART2_IRQHandler+0x68>)
 8000f32:	781b      	ldrb	r3, [r3, #0]
 8000f34:	429a      	cmp	r2, r3
 8000f36:	d305      	bcc.n	8000f44 <USART2_IRQHandler+0x50>
		isDataRead = 1;
 8000f38:	4b09      	ldr	r3, [pc, #36]	; (8000f60 <USART2_IRQHandler+0x6c>)
 8000f3a:	2201      	movs	r2, #1
 8000f3c:	701a      	strb	r2, [r3, #0]
		dataCounter=0;
 8000f3e:	4b05      	ldr	r3, [pc, #20]	; (8000f54 <USART2_IRQHandler+0x60>)
 8000f40:	2200      	movs	r2, #0
 8000f42:	701a      	strb	r2, [r3, #0]
		//transmit(buf2, 2);
	}
}
 8000f44:	bf00      	nop
 8000f46:	46bd      	mov	sp, r7
 8000f48:	f85d 7b04 	ldr.w	r7, [sp], #4
 8000f4c:	4770      	bx	lr
 8000f4e:	bf00      	nop
 8000f50:	40004400 	.word	0x40004400
 8000f54:	2000003c 	.word	0x2000003c
 8000f58:	20000004 	.word	0x20000004
 8000f5c:	20000000 	.word	0x20000000
 8000f60:	2000003d 	.word	0x2000003d

08000f64 <TIM6_DAC_IRQHandler>:

void TIM6_DAC_IRQHandler() {
 8000f64:	b480      	push	{r7}
 8000f66:	af00      	add	r7, sp, #0
	// отсчитал 1.5kHz частоту
	if (time < timer_cnt) {
 8000f68:	4b0e      	ldr	r3, [pc, #56]	; (8000fa4 <TIM6_DAC_IRQHandler+0x40>)
 8000f6a:	681a      	ldr	r2, [r3, #0]
 8000f6c:	4b0e      	ldr	r3, [pc, #56]	; (8000fa8 <TIM6_DAC_IRQHandler+0x44>)
 8000f6e:	681b      	ldr	r3, [r3, #0]
 8000f70:	429a      	cmp	r2, r3
 8000f72:	d20c      	bcs.n	8000f8e <TIM6_DAC_IRQHandler+0x2a>
		time = (time + 1) % timer_cnt;
 8000f74:	4b0b      	ldr	r3, [pc, #44]	; (8000fa4 <TIM6_DAC_IRQHandler+0x40>)
 8000f76:	681b      	ldr	r3, [r3, #0]
 8000f78:	3301      	adds	r3, #1
 8000f7a:	4a0b      	ldr	r2, [pc, #44]	; (8000fa8 <TIM6_DAC_IRQHandler+0x44>)
 8000f7c:	6812      	ldr	r2, [r2, #0]
 8000f7e:	fbb3 f1f2 	udiv	r1, r3, r2
 8000f82:	fb01 f202 	mul.w	r2, r1, r2
 8000f86:	1a9b      	subs	r3, r3, r2
 8000f88:	4a06      	ldr	r2, [pc, #24]	; (8000fa4 <TIM6_DAC_IRQHandler+0x40>)
 8000f8a:	6013      	str	r3, [r2, #0]
 8000f8c:	e002      	b.n	8000f94 <TIM6_DAC_IRQHandler+0x30>
	} else {
		time = 0;
 8000f8e:	4b05      	ldr	r3, [pc, #20]	; (8000fa4 <TIM6_DAC_IRQHandler+0x40>)
 8000f90:	2200      	movs	r2, #0
 8000f92:	601a      	str	r2, [r3, #0]
	}
	timerUpdate = 1;
 8000f94:	4b05      	ldr	r3, [pc, #20]	; (8000fac <TIM6_DAC_IRQHandler+0x48>)
 8000f96:	2201      	movs	r2, #1
 8000f98:	701a      	strb	r2, [r3, #0]
}
 8000f9a:	bf00      	nop
 8000f9c:	46bd      	mov	sp, r7
 8000f9e:	f85d 7b04 	ldr.w	r7, [sp], #4
 8000fa2:	4770      	bx	lr
 8000fa4:	20000040 	.word	0x20000040
 8000fa8:	20000018 	.word	0x20000018
 8000fac:	2000003e 	.word	0x2000003e

08000fb0 <SysTick_Handler>:

// was used previously instead of TIM6
void SysTick_Handler() {
 8000fb0:	b480      	push	{r7}
 8000fb2:	af00      	add	r7, sp, #0
	// отсчитал 1.5kHz частоту
	if (time < timer_cnt) {
 8000fb4:	4b0e      	ldr	r3, [pc, #56]	; (8000ff0 <SysTick_Handler+0x40>)
 8000fb6:	681a      	ldr	r2, [r3, #0]
 8000fb8:	4b0e      	ldr	r3, [pc, #56]	; (8000ff4 <SysTick_Handler+0x44>)
 8000fba:	681b      	ldr	r3, [r3, #0]
 8000fbc:	429a      	cmp	r2, r3
 8000fbe:	d20c      	bcs.n	8000fda <SysTick_Handler+0x2a>
		time = (time + 1) % timer_cnt;
 8000fc0:	4b0b      	ldr	r3, [pc, #44]	; (8000ff0 <SysTick_Handler+0x40>)
 8000fc2:	681b      	ldr	r3, [r3, #0]
 8000fc4:	3301      	adds	r3, #1
 8000fc6:	4a0b      	ldr	r2, [pc, #44]	; (8000ff4 <SysTick_Handler+0x44>)
 8000fc8:	6812      	ldr	r2, [r2, #0]
 8000fca:	fbb3 f1f2 	udiv	r1, r3, r2
 8000fce:	fb01 f202 	mul.w	r2, r1, r2
 8000fd2:	1a9b      	subs	r3, r3, r2
 8000fd4:	4a06      	ldr	r2, [pc, #24]	; (8000ff0 <SysTick_Handler+0x40>)
 8000fd6:	6013      	str	r3, [r2, #0]
 8000fd8:	e002      	b.n	8000fe0 <SysTick_Handler+0x30>
	} else {
		time = 0;
 8000fda:	4b05      	ldr	r3, [pc, #20]	; (8000ff0 <SysTick_Handler+0x40>)
 8000fdc:	2200      	movs	r2, #0
 8000fde:	601a      	str	r2, [r3, #0]
	}
	timerUpdate=1;
 8000fe0:	4b05      	ldr	r3, [pc, #20]	; (8000ff8 <SysTick_Handler+0x48>)
 8000fe2:	2201      	movs	r2, #1
 8000fe4:	701a      	strb	r2, [r3, #0]
}
 8000fe6:	bf00      	nop
 8000fe8:	46bd      	mov	sp, r7
 8000fea:	f85d 7b04 	ldr.w	r7, [sp], #4
 8000fee:	4770      	bx	lr
 8000ff0:	20000040 	.word	0x20000040
 8000ff4:	20000018 	.word	0x20000018
 8000ff8:	2000003e 	.word	0x2000003e
 8000ffc:	00000000 	.word	0x00000000

08001000 <main>:

/* Для отправки данных нужен будет ещё один таймер
 *
 */

int main() {
 8001000:	b5b0      	push	{r4, r5, r7, lr}
 8001002:	b084      	sub	sp, #16
 8001004:	af00      	add	r7, sp, #0
	// 1. RCC, Prescalers
	RCC_Init();
 8001006:	f7ff fdbb 	bl	8000b80 <RCC_Init>
	// 2. FPU on
	SCB->CPACR |= (3UL << 10 * 2) | (3UL << 11 * 2);
 800100a:	4b41      	ldr	r3, [pc, #260]	; (8001110 <main+0x110>)
 800100c:	f8d3 3088 	ldr.w	r3, [r3, #136]	; 0x88
 8001010:	4a3f      	ldr	r2, [pc, #252]	; (8001110 <main+0x110>)
 8001012:	f443 0370 	orr.w	r3, r3, #15728640	; 0xf00000
 8001016:	f8c2 3088 	str.w	r3, [r2, #136]	; 0x88
	// 3-6 - GPIO for UART + UART init + same for DAC
	USART2_Init();
 800101a:	f7ff ff19 	bl	8000e50 <USART2_Init>
	DAC_Init();
 800101e:	f7ff fea3 	bl	8000d68 <DAC_Init>
	//SysTick_Init();
	TIM6_Init();
 8001022:	f7ff ff45 	bl	8000eb0 <TIM6_Init>
	//ADC1_Init();
	while (1) {
		if (timerUpdate) {
 8001026:	4b3b      	ldr	r3, [pc, #236]	; (8001114 <main+0x114>)
 8001028:	781b      	ldrb	r3, [r3, #0]
 800102a:	b2db      	uxtb	r3, r3
 800102c:	2b00      	cmp	r3, #0
 800102e:	d05a      	beq.n	80010e6 <main+0xe6>
			// upload to DAC
			double sin_value = SIN_AMPLITUDE/2.0 * (sin(M_PI/180.0 * time * SIN_FREQ) + 1.0);
 8001030:	4b39      	ldr	r3, [pc, #228]	; (8001118 <main+0x118>)
 8001032:	e9d3 0100 	ldrd	r0, r1, [r3]
 8001036:	f04f 0200 	mov.w	r2, #0
 800103a:	f04f 4380 	mov.w	r3, #1073741824	; 0x40000000
 800103e:	f7ff fbc9 	bl	80007d4 <__aeabi_ddiv>
 8001042:	4602      	mov	r2, r0
 8001044:	460b      	mov	r3, r1
 8001046:	4614      	mov	r4, r2
 8001048:	461d      	mov	r5, r3
 800104a:	4b34      	ldr	r3, [pc, #208]	; (800111c <main+0x11c>)
 800104c:	681b      	ldr	r3, [r3, #0]
 800104e:	4618      	mov	r0, r3
 8001050:	f7ff fa1c 	bl	800048c <__aeabi_ui2d>
 8001054:	a32a      	add	r3, pc, #168	; (adr r3, 8001100 <main+0x100>)
 8001056:	e9d3 2300 	ldrd	r2, r3, [r3]
 800105a:	f7ff fa91 	bl	8000580 <__aeabi_dmul>
 800105e:	4602      	mov	r2, r0
 8001060:	460b      	mov	r3, r1
 8001062:	4610      	mov	r0, r2
 8001064:	4619      	mov	r1, r3
 8001066:	4b2e      	ldr	r3, [pc, #184]	; (8001120 <main+0x120>)
 8001068:	e9d3 2300 	ldrd	r2, r3, [r3]
 800106c:	f7ff fa88 	bl	8000580 <__aeabi_dmul>
 8001070:	4602      	mov	r2, r0
 8001072:	460b      	mov	r3, r1
 8001074:	ec43 2b17 	vmov	d7, r2, r3
 8001078:	eeb0 0a47 	vmov.f32	s0, s14
 800107c:	eef0 0a67 	vmov.f32	s1, s15
 8001080:	f000 f966 	bl	8001350 <sin>
 8001084:	ec51 0b10 	vmov	r0, r1, d0
 8001088:	f04f 0200 	mov.w	r2, #0
 800108c:	4b25      	ldr	r3, [pc, #148]	; (8001124 <main+0x124>)
 800108e:	f7ff f8c1 	bl	8000214 <__adddf3>
 8001092:	4602      	mov	r2, r0
 8001094:	460b      	mov	r3, r1
 8001096:	4620      	mov	r0, r4
 8001098:	4629      	mov	r1, r5
 800109a:	f7ff fa71 	bl	8000580 <__aeabi_dmul>
 800109e:	4602      	mov	r2, r0
 80010a0:	460b      	mov	r3, r1
 80010a2:	e9c7 2302 	strd	r2, r3, [r7, #8]
			uint16_t DAC_value = (uint16_t)(sin_value * maxDACData / 2.975);
 80010a6:	4b20      	ldr	r3, [pc, #128]	; (8001128 <main+0x128>)
 80010a8:	881b      	ldrh	r3, [r3, #0]
 80010aa:	4618      	mov	r0, r3
 80010ac:	f7ff f9fe 	bl	80004ac <__aeabi_i2d>
 80010b0:	e9d7 2302 	ldrd	r2, r3, [r7, #8]
 80010b4:	f7ff fa64 	bl	8000580 <__aeabi_dmul>
 80010b8:	4602      	mov	r2, r0
 80010ba:	460b      	mov	r3, r1
 80010bc:	4610      	mov	r0, r2
 80010be:	4619      	mov	r1, r3
 80010c0:	a311      	add	r3, pc, #68	; (adr r3, 8001108 <main+0x108>)
 80010c2:	e9d3 2300 	ldrd	r2, r3, [r3]
 80010c6:	f7ff fb85 	bl	80007d4 <__aeabi_ddiv>
 80010ca:	4602      	mov	r2, r0
 80010cc:	460b      	mov	r3, r1
 80010ce:	4610      	mov	r0, r2
 80010d0:	4619      	mov	r1, r3
 80010d2:	f7ff fd17 	bl	8000b04 <__aeabi_d2uiz>
 80010d6:	4603      	mov	r3, r0
 80010d8:	80fb      	strh	r3, [r7, #6]
			DAC->DHR12R1 = DAC_value;
 80010da:	4a14      	ldr	r2, [pc, #80]	; (800112c <main+0x12c>)
 80010dc:	88fb      	ldrh	r3, [r7, #6]
 80010de:	6093      	str	r3, [r2, #8]
			timerUpdate = 0;
 80010e0:	4b0c      	ldr	r3, [pc, #48]	; (8001114 <main+0x114>)
 80010e2:	2200      	movs	r2, #0
 80010e4:	701a      	strb	r2, [r3, #0]
		}
		// if UART received data
		if (isDataRead) {
 80010e6:	4b12      	ldr	r3, [pc, #72]	; (8001130 <main+0x130>)
 80010e8:	781b      	ldrb	r3, [r3, #0]
 80010ea:	b2db      	uxtb	r3, r3
 80010ec:	2b00      	cmp	r3, #0
 80010ee:	d09a      	beq.n	8001026 <main+0x26>
			USART_change_freq();
 80010f0:	f000 f85a 	bl	80011a8 <USART_change_freq>
			isDataRead=0; // снимаем флаг, чтоб потом опять его ставить
 80010f4:	4b0e      	ldr	r3, [pc, #56]	; (8001130 <main+0x130>)
 80010f6:	2200      	movs	r2, #0
 80010f8:	701a      	strb	r2, [r3, #0]
		if (timerUpdate) {
 80010fa:	e794      	b.n	8001026 <main+0x26>
 80010fc:	f3af 8000 	nop.w
 8001100:	a2529d39 	.word	0xa2529d39
 8001104:	3f91df46 	.word	0x3f91df46
 8001108:	cccccccd 	.word	0xcccccccd
 800110c:	4007cccc 	.word	0x4007cccc
 8001110:	e000ed00 	.word	0xe000ed00
 8001114:	2000003e 	.word	0x2000003e
 8001118:	20000010 	.word	0x20000010
 800111c:	20000040 	.word	0x20000040
 8001120:	20000008 	.word	0x20000008
 8001124:	3ff00000 	.word	0x3ff00000
 8001128:	2000001c 	.word	0x2000001c
 800112c:	40007400 	.word	0x40007400
 8001130:	2000003d 	.word	0x2000003d

08001134 <SystemInit>:
  *         configuration.
  * @param  None
  * @retval None
  */
void SystemInit(void)
{
 8001134:	b480      	push	{r7}
 8001136:	af00      	add	r7, sp, #0
  /* FPU settings ------------------------------------------------------------*/
  #if (__FPU_PRESENT == 1) && (__FPU_USED == 1)
    SCB->CPACR |= ((3UL << 10*2)|(3UL << 11*2));  /* set CP10 and CP11 Full Access */
 8001138:	4b06      	ldr	r3, [pc, #24]	; (8001154 <SystemInit+0x20>)
 800113a:	f8d3 3088 	ldr.w	r3, [r3, #136]	; 0x88
 800113e:	4a05      	ldr	r2, [pc, #20]	; (8001154 <SystemInit+0x20>)
 8001140:	f443 0370 	orr.w	r3, r3, #15728640	; 0xf00000
 8001144:	f8c2 3088 	str.w	r3, [r2, #136]	; 0x88

  /* Configure the Vector Table location -------------------------------------*/
#if defined(USER_VECT_TAB_ADDRESS)
  SCB->VTOR = VECT_TAB_BASE_ADDRESS | VECT_TAB_OFFSET; /* Vector Table Relocation in Internal SRAM */
#endif /* USER_VECT_TAB_ADDRESS */
}
 8001148:	bf00      	nop
 800114a:	46bd      	mov	sp, r7
 800114c:	f85d 7b04 	ldr.w	r7, [sp], #4
 8001150:	4770      	bx	lr
 8001152:	bf00      	nop
 8001154:	e000ed00 	.word	0xe000ed00

08001158 <transmit>:
#include "def.h"
#include "usart.h"
#include "irq.h"

// transmit an array
void transmit(const uint8_t* data, uint8_t n) {
 8001158:	b480      	push	{r7}
 800115a:	b085      	sub	sp, #20
 800115c:	af00      	add	r7, sp, #0
 800115e:	6078      	str	r0, [r7, #4]
 8001160:	460b      	mov	r3, r1
 8001162:	70fb      	strb	r3, [r7, #3]
	for (uint8_t i = 0; i < n; i++) {
 8001164:	2300      	movs	r3, #0
 8001166:	73fb      	strb	r3, [r7, #15]
 8001168:	e00f      	b.n	800118a <transmit+0x32>
		// пока TXE = 0 будет задержка (TXE = 1 means USART_DR is empty, we can write)
		while (!(USART2->SR & USART_SR_TXE)) {};
 800116a:	bf00      	nop
 800116c:	4b0c      	ldr	r3, [pc, #48]	; (80011a0 <transmit+0x48>)
 800116e:	681b      	ldr	r3, [r3, #0]
 8001170:	f003 0380 	and.w	r3, r3, #128	; 0x80
 8001174:	2b00      	cmp	r3, #0
 8001176:	d0f9      	beq.n	800116c <transmit+0x14>
		USART2->DR = data[i];
 8001178:	7bfb      	ldrb	r3, [r7, #15]
 800117a:	687a      	ldr	r2, [r7, #4]
 800117c:	4413      	add	r3, r2
 800117e:	781a      	ldrb	r2, [r3, #0]
 8001180:	4b07      	ldr	r3, [pc, #28]	; (80011a0 <transmit+0x48>)
 8001182:	605a      	str	r2, [r3, #4]
	for (uint8_t i = 0; i < n; i++) {
 8001184:	7bfb      	ldrb	r3, [r7, #15]
 8001186:	3301      	adds	r3, #1
 8001188:	73fb      	strb	r3, [r7, #15]
 800118a:	7bfa      	ldrb	r2, [r7, #15]
 800118c:	78fb      	ldrb	r3, [r7, #3]
 800118e:	429a      	cmp	r2, r3
 8001190:	d3eb      	bcc.n	800116a <transmit+0x12>
	}
}
 8001192:	bf00      	nop
 8001194:	bf00      	nop
 8001196:	3714      	adds	r7, #20
 8001198:	46bd      	mov	sp, r7
 800119a:	f85d 7b04 	ldr.w	r7, [sp], #4
 800119e:	4770      	bx	lr
 80011a0:	40004400 	.word	0x40004400
 80011a4:	00000000 	.word	0x00000000

080011a8 <USART_change_freq>:

void USART_change_freq() {
 80011a8:	b580      	push	{r7, lr}
 80011aa:	af00      	add	r7, sp, #0
	transmit(buf, 2);
 80011ac:	2102      	movs	r1, #2
 80011ae:	4836      	ldr	r0, [pc, #216]	; (8001288 <USART_change_freq+0xe0>)
 80011b0:	f7ff ffd2 	bl	8001158 <transmit>
	// frequency
	switch (buf[0]) {
 80011b4:	4b34      	ldr	r3, [pc, #208]	; (8001288 <USART_change_freq+0xe0>)
 80011b6:	781b      	ldrb	r3, [r3, #0]
 80011b8:	b2db      	uxtb	r3, r3
 80011ba:	2b33      	cmp	r3, #51	; 0x33
 80011bc:	d014      	beq.n	80011e8 <USART_change_freq+0x40>
 80011be:	2b33      	cmp	r3, #51	; 0x33
 80011c0:	dc19      	bgt.n	80011f6 <USART_change_freq+0x4e>
 80011c2:	2b31      	cmp	r3, #49	; 0x31
 80011c4:	d002      	beq.n	80011cc <USART_change_freq+0x24>
 80011c6:	2b32      	cmp	r3, #50	; 0x32
 80011c8:	d007      	beq.n	80011da <USART_change_freq+0x32>
 80011ca:	e014      	b.n	80011f6 <USART_change_freq+0x4e>
		case '1': {
			SIN_FREQ = 5.0;
 80011cc:	492f      	ldr	r1, [pc, #188]	; (800128c <USART_change_freq+0xe4>)
 80011ce:	f04f 0200 	mov.w	r2, #0
 80011d2:	4b2f      	ldr	r3, [pc, #188]	; (8001290 <USART_change_freq+0xe8>)
 80011d4:	e9c1 2300 	strd	r2, r3, [r1]
			break;
 80011d8:	e014      	b.n	8001204 <USART_change_freq+0x5c>
		}
		case '2': {
			SIN_FREQ = 100.0;
 80011da:	492c      	ldr	r1, [pc, #176]	; (800128c <USART_change_freq+0xe4>)
 80011dc:	f04f 0200 	mov.w	r2, #0
 80011e0:	4b2c      	ldr	r3, [pc, #176]	; (8001294 <USART_change_freq+0xec>)
 80011e2:	e9c1 2300 	strd	r2, r3, [r1]
			break;
 80011e6:	e00d      	b.n	8001204 <USART_change_freq+0x5c>
		}
		case '3': {
			SIN_FREQ = 10.0;
 80011e8:	4928      	ldr	r1, [pc, #160]	; (800128c <USART_change_freq+0xe4>)
 80011ea:	f04f 0200 	mov.w	r2, #0
 80011ee:	4b2a      	ldr	r3, [pc, #168]	; (8001298 <USART_change_freq+0xf0>)
 80011f0:	e9c1 2300 	strd	r2, r3, [r1]
			break;
 80011f4:	e006      	b.n	8001204 <USART_change_freq+0x5c>
		}
		default: {
			SIN_FREQ = 15.0;
 80011f6:	4925      	ldr	r1, [pc, #148]	; (800128c <USART_change_freq+0xe4>)
 80011f8:	f04f 0200 	mov.w	r2, #0
 80011fc:	4b27      	ldr	r3, [pc, #156]	; (800129c <USART_change_freq+0xf4>)
 80011fe:	e9c1 2300 	strd	r2, r3, [r1]
			break;
 8001202:	bf00      	nop
		}
	}
	switch (buf[1]) {
 8001204:	4b20      	ldr	r3, [pc, #128]	; (8001288 <USART_change_freq+0xe0>)
 8001206:	785b      	ldrb	r3, [r3, #1]
 8001208:	b2db      	uxtb	r3, r3
 800120a:	2b33      	cmp	r3, #51	; 0x33
 800120c:	d015      	beq.n	800123a <USART_change_freq+0x92>
 800120e:	2b33      	cmp	r3, #51	; 0x33
 8001210:	dc1a      	bgt.n	8001248 <USART_change_freq+0xa0>
 8001212:	2b31      	cmp	r3, #49	; 0x31
 8001214:	d002      	beq.n	800121c <USART_change_freq+0x74>
 8001216:	2b32      	cmp	r3, #50	; 0x32
 8001218:	d007      	beq.n	800122a <USART_change_freq+0x82>
 800121a:	e015      	b.n	8001248 <USART_change_freq+0xa0>
		case '1': {
			SIN_AMPLITUDE = 1.0;
 800121c:	4920      	ldr	r1, [pc, #128]	; (80012a0 <USART_change_freq+0xf8>)
 800121e:	f04f 0200 	mov.w	r2, #0
 8001222:	4b20      	ldr	r3, [pc, #128]	; (80012a4 <USART_change_freq+0xfc>)
 8001224:	e9c1 2300 	strd	r2, r3, [r1]
			break;
 8001228:	e015      	b.n	8001256 <USART_change_freq+0xae>
		}
		case '2': {
			SIN_AMPLITUDE = 2.0;
 800122a:	491d      	ldr	r1, [pc, #116]	; (80012a0 <USART_change_freq+0xf8>)
 800122c:	f04f 0200 	mov.w	r2, #0
 8001230:	f04f 4380 	mov.w	r3, #1073741824	; 0x40000000
 8001234:	e9c1 2300 	strd	r2, r3, [r1]
			break;
 8001238:	e00d      	b.n	8001256 <USART_change_freq+0xae>
		}
		case '3': {
			SIN_AMPLITUDE = 0.5;
 800123a:	4919      	ldr	r1, [pc, #100]	; (80012a0 <USART_change_freq+0xf8>)
 800123c:	f04f 0200 	mov.w	r2, #0
 8001240:	4b19      	ldr	r3, [pc, #100]	; (80012a8 <USART_change_freq+0x100>)
 8001242:	e9c1 2300 	strd	r2, r3, [r1]
			break;
 8001246:	e006      	b.n	8001256 <USART_change_freq+0xae>
		}
		default: {
			SIN_AMPLITUDE = 1.5;
 8001248:	4915      	ldr	r1, [pc, #84]	; (80012a0 <USART_change_freq+0xf8>)
 800124a:	f04f 0200 	mov.w	r2, #0
 800124e:	4b17      	ldr	r3, [pc, #92]	; (80012ac <USART_change_freq+0x104>)
 8001250:	e9c1 2300 	strd	r2, r3, [r1]
			break;
 8001254:	bf00      	nop
		}
	}
	timer_cnt = 100000.0 * SIN_FREQ;
 8001256:	4b0d      	ldr	r3, [pc, #52]	; (800128c <USART_change_freq+0xe4>)
 8001258:	e9d3 0100 	ldrd	r0, r1, [r3]
 800125c:	a308      	add	r3, pc, #32	; (adr r3, 8001280 <USART_change_freq+0xd8>)
 800125e:	e9d3 2300 	ldrd	r2, r3, [r3]
 8001262:	f7ff f98d 	bl	8000580 <__aeabi_dmul>
 8001266:	4602      	mov	r2, r0
 8001268:	460b      	mov	r3, r1
 800126a:	4610      	mov	r0, r2
 800126c:	4619      	mov	r1, r3
 800126e:	f7ff fc49 	bl	8000b04 <__aeabi_d2uiz>
 8001272:	4603      	mov	r3, r0
 8001274:	4a0e      	ldr	r2, [pc, #56]	; (80012b0 <USART_change_freq+0x108>)
 8001276:	6013      	str	r3, [r2, #0]
}
 8001278:	bf00      	nop
 800127a:	bd80      	pop	{r7, pc}
 800127c:	f3af 8000 	nop.w
 8001280:	00000000 	.word	0x00000000
 8001284:	40f86a00 	.word	0x40f86a00
 8001288:	20000004 	.word	0x20000004
 800128c:	20000008 	.word	0x20000008
 8001290:	40140000 	.word	0x40140000
 8001294:	40590000 	.word	0x40590000
 8001298:	40240000 	.word	0x40240000
 800129c:	402e0000 	.word	0x402e0000
 80012a0:	20000010 	.word	0x20000010
 80012a4:	3ff00000 	.word	0x3ff00000
 80012a8:	3fe00000 	.word	0x3fe00000
 80012ac:	3ff80000 	.word	0x3ff80000
 80012b0:	20000018 	.word	0x20000018

080012b4 <Reset_Handler>:

    .section  .text.Reset_Handler
  .weak  Reset_Handler
  .type  Reset_Handler, %function
Reset_Handler:  
  ldr   sp, =_estack      /* set stack pointer */
 80012b4:	f8df d034 	ldr.w	sp, [pc, #52]	; 80012ec <LoopFillZerobss+0x12>

/* Copy the data segment initializers from flash to SRAM */  
  ldr r0, =_sdata
 80012b8:	480d      	ldr	r0, [pc, #52]	; (80012f0 <LoopFillZerobss+0x16>)
  ldr r1, =_edata
 80012ba:	490e      	ldr	r1, [pc, #56]	; (80012f4 <LoopFillZerobss+0x1a>)
  ldr r2, =_sidata
 80012bc:	4a0e      	ldr	r2, [pc, #56]	; (80012f8 <LoopFillZerobss+0x1e>)
  movs r3, #0
 80012be:	2300      	movs	r3, #0
  b LoopCopyDataInit
 80012c0:	e002      	b.n	80012c8 <LoopCopyDataInit>

080012c2 <CopyDataInit>:

CopyDataInit:
  ldr r4, [r2, r3]
 80012c2:	58d4      	ldr	r4, [r2, r3]
  str r4, [r0, r3]
 80012c4:	50c4      	str	r4, [r0, r3]
  adds r3, r3, #4
 80012c6:	3304      	adds	r3, #4

080012c8 <LoopCopyDataInit>:

LoopCopyDataInit:
  adds r4, r0, r3
 80012c8:	18c4      	adds	r4, r0, r3
  cmp r4, r1
 80012ca:	428c      	cmp	r4, r1
  bcc CopyDataInit
 80012cc:	d3f9      	bcc.n	80012c2 <CopyDataInit>
  
/* Zero fill the bss segment. */
  ldr r2, =_sbss
 80012ce:	4a0b      	ldr	r2, [pc, #44]	; (80012fc <LoopFillZerobss+0x22>)
  ldr r4, =_ebss
 80012d0:	4c0b      	ldr	r4, [pc, #44]	; (8001300 <LoopFillZerobss+0x26>)
  movs r3, #0
 80012d2:	2300      	movs	r3, #0
  b LoopFillZerobss
 80012d4:	e001      	b.n	80012da <LoopFillZerobss>

080012d6 <FillZerobss>:

FillZerobss:
  str  r3, [r2]
 80012d6:	6013      	str	r3, [r2, #0]
  adds r2, r2, #4
 80012d8:	3204      	adds	r2, #4

080012da <LoopFillZerobss>:

LoopFillZerobss:
  cmp r2, r4
 80012da:	42a2      	cmp	r2, r4
  bcc FillZerobss
 80012dc:	d3fb      	bcc.n	80012d6 <FillZerobss>

/* Call the clock system initialization function.*/
  bl  SystemInit   
 80012de:	f7ff ff29 	bl	8001134 <SystemInit>
/* Call static constructors */
    bl __libc_init_array
 80012e2:	f000 f811 	bl	8001308 <__libc_init_array>
/* Call the application's entry point.*/
  bl  main
 80012e6:	f7ff fe8b 	bl	8001000 <main>
  bx  lr    
 80012ea:	4770      	bx	lr
  ldr   sp, =_estack      /* set stack pointer */
 80012ec:	20020000 	.word	0x20020000
  ldr r0, =_sdata
 80012f0:	20000000 	.word	0x20000000
  ldr r1, =_edata
 80012f4:	20000020 	.word	0x20000020
  ldr r2, =_sidata
 80012f8:	080025e0 	.word	0x080025e0
  ldr r2, =_sbss
 80012fc:	20000020 	.word	0x20000020
  ldr r4, =_ebss
 8001300:	20000044 	.word	0x20000044

08001304 <ADC_IRQHandler>:
 * @retval None       
*/
    .section  .text.Default_Handler,"ax",%progbits
Default_Handler:
Infinite_Loop:
  b  Infinite_Loop
 8001304:	e7fe      	b.n	8001304 <ADC_IRQHandler>
	...

08001308 <__libc_init_array>:
 8001308:	b570      	push	{r4, r5, r6, lr}
 800130a:	4d0d      	ldr	r5, [pc, #52]	; (8001340 <__libc_init_array+0x38>)
 800130c:	4c0d      	ldr	r4, [pc, #52]	; (8001344 <__libc_init_array+0x3c>)
 800130e:	1b64      	subs	r4, r4, r5
 8001310:	10a4      	asrs	r4, r4, #2
 8001312:	2600      	movs	r6, #0
 8001314:	42a6      	cmp	r6, r4
 8001316:	d109      	bne.n	800132c <__libc_init_array+0x24>
 8001318:	4d0b      	ldr	r5, [pc, #44]	; (8001348 <__libc_init_array+0x40>)
 800131a:	4c0c      	ldr	r4, [pc, #48]	; (800134c <__libc_init_array+0x44>)
 800131c:	f001 f862 	bl	80023e4 <_init>
 8001320:	1b64      	subs	r4, r4, r5
 8001322:	10a4      	asrs	r4, r4, #2
 8001324:	2600      	movs	r6, #0
 8001326:	42a6      	cmp	r6, r4
 8001328:	d105      	bne.n	8001336 <__libc_init_array+0x2e>
 800132a:	bd70      	pop	{r4, r5, r6, pc}
 800132c:	f855 3b04 	ldr.w	r3, [r5], #4
 8001330:	4798      	blx	r3
 8001332:	3601      	adds	r6, #1
 8001334:	e7ee      	b.n	8001314 <__libc_init_array+0xc>
 8001336:	f855 3b04 	ldr.w	r3, [r5], #4
 800133a:	4798      	blx	r3
 800133c:	3601      	adds	r6, #1
 800133e:	e7f2      	b.n	8001326 <__libc_init_array+0x1e>
 8001340:	080025d8 	.word	0x080025d8
 8001344:	080025d8 	.word	0x080025d8
 8001348:	080025d8 	.word	0x080025d8
 800134c:	080025dc 	.word	0x080025dc

08001350 <sin>:
 8001350:	b51f      	push	{r0, r1, r2, r3, r4, lr}
 8001352:	ec53 2b10 	vmov	r2, r3, d0
 8001356:	4828      	ldr	r0, [pc, #160]	; (80013f8 <sin+0xa8>)
 8001358:	f023 4100 	bic.w	r1, r3, #2147483648	; 0x80000000
 800135c:	4281      	cmp	r1, r0
 800135e:	dc07      	bgt.n	8001370 <sin+0x20>
 8001360:	ed9f 1b23 	vldr	d1, [pc, #140]	; 80013f0 <sin+0xa0>
 8001364:	2000      	movs	r0, #0
 8001366:	b005      	add	sp, #20
 8001368:	f85d eb04 	ldr.w	lr, [sp], #4
 800136c:	f000 be6c 	b.w	8002048 <__kernel_sin>
 8001370:	4822      	ldr	r0, [pc, #136]	; (80013fc <sin+0xac>)
 8001372:	4281      	cmp	r1, r0
 8001374:	dd09      	ble.n	800138a <sin+0x3a>
 8001376:	ee10 0a10 	vmov	r0, s0
 800137a:	4619      	mov	r1, r3
 800137c:	f7fe ff48 	bl	8000210 <__aeabi_dsub>
 8001380:	ec41 0b10 	vmov	d0, r0, r1
 8001384:	b005      	add	sp, #20
 8001386:	f85d fb04 	ldr.w	pc, [sp], #4
 800138a:	4668      	mov	r0, sp
 800138c:	f000 f838 	bl	8001400 <__ieee754_rem_pio2>
 8001390:	f000 0003 	and.w	r0, r0, #3
 8001394:	2801      	cmp	r0, #1
 8001396:	d00c      	beq.n	80013b2 <sin+0x62>
 8001398:	2802      	cmp	r0, #2
 800139a:	d011      	beq.n	80013c0 <sin+0x70>
 800139c:	b9f0      	cbnz	r0, 80013dc <sin+0x8c>
 800139e:	ed9d 1b02 	vldr	d1, [sp, #8]
 80013a2:	ed9d 0b00 	vldr	d0, [sp]
 80013a6:	2001      	movs	r0, #1
 80013a8:	f000 fe4e 	bl	8002048 <__kernel_sin>
 80013ac:	ec51 0b10 	vmov	r0, r1, d0
 80013b0:	e7e6      	b.n	8001380 <sin+0x30>
 80013b2:	ed9d 1b02 	vldr	d1, [sp, #8]
 80013b6:	ed9d 0b00 	vldr	d0, [sp]
 80013ba:	f000 fa2d 	bl	8001818 <__kernel_cos>
 80013be:	e7f5      	b.n	80013ac <sin+0x5c>
 80013c0:	ed9d 1b02 	vldr	d1, [sp, #8]
 80013c4:	ed9d 0b00 	vldr	d0, [sp]
 80013c8:	2001      	movs	r0, #1
 80013ca:	f000 fe3d 	bl	8002048 <__kernel_sin>
 80013ce:	ec53 2b10 	vmov	r2, r3, d0
 80013d2:	ee10 0a10 	vmov	r0, s0
 80013d6:	f103 4100 	add.w	r1, r3, #2147483648	; 0x80000000
 80013da:	e7d1      	b.n	8001380 <sin+0x30>
 80013dc:	ed9d 1b02 	vldr	d1, [sp, #8]
 80013e0:	ed9d 0b00 	vldr	d0, [sp]
 80013e4:	f000 fa18 	bl	8001818 <__kernel_cos>
 80013e8:	e7f1      	b.n	80013ce <sin+0x7e>
 80013ea:	bf00      	nop
 80013ec:	f3af 8000 	nop.w
	...
 80013f8:	3fe921fb 	.word	0x3fe921fb
 80013fc:	7fefffff 	.word	0x7fefffff

08001400 <__ieee754_rem_pio2>:
 8001400:	e92d 4ff0 	stmdb	sp!, {r4, r5, r6, r7, r8, r9, sl, fp, lr}
 8001404:	ed2d 8b02 	vpush	{d8}
 8001408:	ec55 4b10 	vmov	r4, r5, d0
 800140c:	4bca      	ldr	r3, [pc, #808]	; (8001738 <__ieee754_rem_pio2+0x338>)
 800140e:	b08b      	sub	sp, #44	; 0x2c
 8001410:	f025 4800 	bic.w	r8, r5, #2147483648	; 0x80000000
 8001414:	4598      	cmp	r8, r3
 8001416:	4682      	mov	sl, r0
 8001418:	9502      	str	r5, [sp, #8]
 800141a:	dc08      	bgt.n	800142e <__ieee754_rem_pio2+0x2e>
 800141c:	2200      	movs	r2, #0
 800141e:	2300      	movs	r3, #0
 8001420:	ed80 0b00 	vstr	d0, [r0]
 8001424:	e9c0 2302 	strd	r2, r3, [r0, #8]
 8001428:	f04f 0b00 	mov.w	fp, #0
 800142c:	e028      	b.n	8001480 <__ieee754_rem_pio2+0x80>
 800142e:	4bc3      	ldr	r3, [pc, #780]	; (800173c <__ieee754_rem_pio2+0x33c>)
 8001430:	4598      	cmp	r8, r3
 8001432:	dc78      	bgt.n	8001526 <__ieee754_rem_pio2+0x126>
 8001434:	9b02      	ldr	r3, [sp, #8]
 8001436:	4ec2      	ldr	r6, [pc, #776]	; (8001740 <__ieee754_rem_pio2+0x340>)
 8001438:	2b00      	cmp	r3, #0
 800143a:	ee10 0a10 	vmov	r0, s0
 800143e:	a3b0      	add	r3, pc, #704	; (adr r3, 8001700 <__ieee754_rem_pio2+0x300>)
 8001440:	e9d3 2300 	ldrd	r2, r3, [r3]
 8001444:	4629      	mov	r1, r5
 8001446:	dd39      	ble.n	80014bc <__ieee754_rem_pio2+0xbc>
 8001448:	f7fe fee2 	bl	8000210 <__aeabi_dsub>
 800144c:	45b0      	cmp	r8, r6
 800144e:	4604      	mov	r4, r0
 8001450:	460d      	mov	r5, r1
 8001452:	d01b      	beq.n	800148c <__ieee754_rem_pio2+0x8c>
 8001454:	a3ac      	add	r3, pc, #688	; (adr r3, 8001708 <__ieee754_rem_pio2+0x308>)
 8001456:	e9d3 2300 	ldrd	r2, r3, [r3]
 800145a:	f7fe fed9 	bl	8000210 <__aeabi_dsub>
 800145e:	4602      	mov	r2, r0
 8001460:	460b      	mov	r3, r1
 8001462:	e9ca 2300 	strd	r2, r3, [sl]
 8001466:	4620      	mov	r0, r4
 8001468:	4629      	mov	r1, r5
 800146a:	f7fe fed1 	bl	8000210 <__aeabi_dsub>
 800146e:	a3a6      	add	r3, pc, #664	; (adr r3, 8001708 <__ieee754_rem_pio2+0x308>)
 8001470:	e9d3 2300 	ldrd	r2, r3, [r3]
 8001474:	f7fe fecc 	bl	8000210 <__aeabi_dsub>
 8001478:	e9ca 0102 	strd	r0, r1, [sl, #8]
 800147c:	f04f 0b01 	mov.w	fp, #1
 8001480:	4658      	mov	r0, fp
 8001482:	b00b      	add	sp, #44	; 0x2c
 8001484:	ecbd 8b02 	vpop	{d8}
 8001488:	e8bd 8ff0 	ldmia.w	sp!, {r4, r5, r6, r7, r8, r9, sl, fp, pc}
 800148c:	a3a0      	add	r3, pc, #640	; (adr r3, 8001710 <__ieee754_rem_pio2+0x310>)
 800148e:	e9d3 2300 	ldrd	r2, r3, [r3]
 8001492:	f7fe febd 	bl	8000210 <__aeabi_dsub>
 8001496:	a3a0      	add	r3, pc, #640	; (adr r3, 8001718 <__ieee754_rem_pio2+0x318>)
 8001498:	e9d3 2300 	ldrd	r2, r3, [r3]
 800149c:	4604      	mov	r4, r0
 800149e:	460d      	mov	r5, r1
 80014a0:	f7fe feb6 	bl	8000210 <__aeabi_dsub>
 80014a4:	4602      	mov	r2, r0
 80014a6:	460b      	mov	r3, r1
 80014a8:	e9ca 2300 	strd	r2, r3, [sl]
 80014ac:	4620      	mov	r0, r4
 80014ae:	4629      	mov	r1, r5
 80014b0:	f7fe feae 	bl	8000210 <__aeabi_dsub>
 80014b4:	a398      	add	r3, pc, #608	; (adr r3, 8001718 <__ieee754_rem_pio2+0x318>)
 80014b6:	e9d3 2300 	ldrd	r2, r3, [r3]
 80014ba:	e7db      	b.n	8001474 <__ieee754_rem_pio2+0x74>
 80014bc:	f7fe feaa 	bl	8000214 <__adddf3>
 80014c0:	45b0      	cmp	r8, r6
 80014c2:	4604      	mov	r4, r0
 80014c4:	460d      	mov	r5, r1
 80014c6:	d016      	beq.n	80014f6 <__ieee754_rem_pio2+0xf6>
 80014c8:	a38f      	add	r3, pc, #572	; (adr r3, 8001708 <__ieee754_rem_pio2+0x308>)
 80014ca:	e9d3 2300 	ldrd	r2, r3, [r3]
 80014ce:	f7fe fea1 	bl	8000214 <__adddf3>
 80014d2:	4602      	mov	r2, r0
 80014d4:	460b      	mov	r3, r1
 80014d6:	e9ca 2300 	strd	r2, r3, [sl]
 80014da:	4620      	mov	r0, r4
 80014dc:	4629      	mov	r1, r5
 80014de:	f7fe fe97 	bl	8000210 <__aeabi_dsub>
 80014e2:	a389      	add	r3, pc, #548	; (adr r3, 8001708 <__ieee754_rem_pio2+0x308>)
 80014e4:	e9d3 2300 	ldrd	r2, r3, [r3]
 80014e8:	f7fe fe94 	bl	8000214 <__adddf3>
 80014ec:	f04f 3bff 	mov.w	fp, #4294967295
 80014f0:	e9ca 0102 	strd	r0, r1, [sl, #8]
 80014f4:	e7c4      	b.n	8001480 <__ieee754_rem_pio2+0x80>
 80014f6:	a386      	add	r3, pc, #536	; (adr r3, 8001710 <__ieee754_rem_pio2+0x310>)
 80014f8:	e9d3 2300 	ldrd	r2, r3, [r3]
 80014fc:	f7fe fe8a 	bl	8000214 <__adddf3>
 8001500:	a385      	add	r3, pc, #532	; (adr r3, 8001718 <__ieee754_rem_pio2+0x318>)
 8001502:	e9d3 2300 	ldrd	r2, r3, [r3]
 8001506:	4604      	mov	r4, r0
 8001508:	460d      	mov	r5, r1
 800150a:	f7fe fe83 	bl	8000214 <__adddf3>
 800150e:	4602      	mov	r2, r0
 8001510:	460b      	mov	r3, r1
 8001512:	e9ca 2300 	strd	r2, r3, [sl]
 8001516:	4620      	mov	r0, r4
 8001518:	4629      	mov	r1, r5
 800151a:	f7fe fe79 	bl	8000210 <__aeabi_dsub>
 800151e:	a37e      	add	r3, pc, #504	; (adr r3, 8001718 <__ieee754_rem_pio2+0x318>)
 8001520:	e9d3 2300 	ldrd	r2, r3, [r3]
 8001524:	e7e0      	b.n	80014e8 <__ieee754_rem_pio2+0xe8>
 8001526:	4b87      	ldr	r3, [pc, #540]	; (8001744 <__ieee754_rem_pio2+0x344>)
 8001528:	4598      	cmp	r8, r3
 800152a:	f300 80d9 	bgt.w	80016e0 <__ieee754_rem_pio2+0x2e0>
 800152e:	f000 fe49 	bl	80021c4 <fabs>
 8001532:	ec55 4b10 	vmov	r4, r5, d0
 8001536:	ee10 0a10 	vmov	r0, s0
 800153a:	a379      	add	r3, pc, #484	; (adr r3, 8001720 <__ieee754_rem_pio2+0x320>)
 800153c:	e9d3 2300 	ldrd	r2, r3, [r3]
 8001540:	4629      	mov	r1, r5
 8001542:	f7ff f81d 	bl	8000580 <__aeabi_dmul>
 8001546:	4b80      	ldr	r3, [pc, #512]	; (8001748 <__ieee754_rem_pio2+0x348>)
 8001548:	2200      	movs	r2, #0
 800154a:	f7fe fe63 	bl	8000214 <__adddf3>
 800154e:	f7ff fab1 	bl	8000ab4 <__aeabi_d2iz>
 8001552:	4683      	mov	fp, r0
 8001554:	f7fe ffaa 	bl	80004ac <__aeabi_i2d>
 8001558:	4602      	mov	r2, r0
 800155a:	460b      	mov	r3, r1
 800155c:	ec43 2b18 	vmov	d8, r2, r3
 8001560:	a367      	add	r3, pc, #412	; (adr r3, 8001700 <__ieee754_rem_pio2+0x300>)
 8001562:	e9d3 2300 	ldrd	r2, r3, [r3]
 8001566:	f7ff f80b 	bl	8000580 <__aeabi_dmul>
 800156a:	4602      	mov	r2, r0
 800156c:	460b      	mov	r3, r1
 800156e:	4620      	mov	r0, r4
 8001570:	4629      	mov	r1, r5
 8001572:	f7fe fe4d 	bl	8000210 <__aeabi_dsub>
 8001576:	a364      	add	r3, pc, #400	; (adr r3, 8001708 <__ieee754_rem_pio2+0x308>)
 8001578:	e9d3 2300 	ldrd	r2, r3, [r3]
 800157c:	4606      	mov	r6, r0
 800157e:	460f      	mov	r7, r1
 8001580:	ec51 0b18 	vmov	r0, r1, d8
 8001584:	f7fe fffc 	bl	8000580 <__aeabi_dmul>
 8001588:	f1bb 0f1f 	cmp.w	fp, #31
 800158c:	4604      	mov	r4, r0
 800158e:	460d      	mov	r5, r1
 8001590:	dc0d      	bgt.n	80015ae <__ieee754_rem_pio2+0x1ae>
 8001592:	4b6e      	ldr	r3, [pc, #440]	; (800174c <__ieee754_rem_pio2+0x34c>)
 8001594:	f10b 32ff 	add.w	r2, fp, #4294967295
 8001598:	f853 3022 	ldr.w	r3, [r3, r2, lsl #2]
 800159c:	4543      	cmp	r3, r8
 800159e:	d006      	beq.n	80015ae <__ieee754_rem_pio2+0x1ae>
 80015a0:	4622      	mov	r2, r4
 80015a2:	462b      	mov	r3, r5
 80015a4:	4630      	mov	r0, r6
 80015a6:	4639      	mov	r1, r7
 80015a8:	f7fe fe32 	bl	8000210 <__aeabi_dsub>
 80015ac:	e00f      	b.n	80015ce <__ieee754_rem_pio2+0x1ce>
 80015ae:	462b      	mov	r3, r5
 80015b0:	4622      	mov	r2, r4
 80015b2:	4630      	mov	r0, r6
 80015b4:	4639      	mov	r1, r7
 80015b6:	f7fe fe2b 	bl	8000210 <__aeabi_dsub>
 80015ba:	ea4f 5328 	mov.w	r3, r8, asr #20
 80015be:	9303      	str	r3, [sp, #12]
 80015c0:	f3c1 530a 	ubfx	r3, r1, #20, #11
 80015c4:	ebc3 5818 	rsb	r8, r3, r8, lsr #20
 80015c8:	f1b8 0f10 	cmp.w	r8, #16
 80015cc:	dc02      	bgt.n	80015d4 <__ieee754_rem_pio2+0x1d4>
 80015ce:	e9ca 0100 	strd	r0, r1, [sl]
 80015d2:	e039      	b.n	8001648 <__ieee754_rem_pio2+0x248>
 80015d4:	a34e      	add	r3, pc, #312	; (adr r3, 8001710 <__ieee754_rem_pio2+0x310>)
 80015d6:	e9d3 2300 	ldrd	r2, r3, [r3]
 80015da:	ec51 0b18 	vmov	r0, r1, d8
 80015de:	f7fe ffcf 	bl	8000580 <__aeabi_dmul>
 80015e2:	4604      	mov	r4, r0
 80015e4:	460d      	mov	r5, r1
 80015e6:	4602      	mov	r2, r0
 80015e8:	460b      	mov	r3, r1
 80015ea:	4630      	mov	r0, r6
 80015ec:	4639      	mov	r1, r7
 80015ee:	f7fe fe0f 	bl	8000210 <__aeabi_dsub>
 80015f2:	4602      	mov	r2, r0
 80015f4:	460b      	mov	r3, r1
 80015f6:	4680      	mov	r8, r0
 80015f8:	4689      	mov	r9, r1
 80015fa:	4630      	mov	r0, r6
 80015fc:	4639      	mov	r1, r7
 80015fe:	f7fe fe07 	bl	8000210 <__aeabi_dsub>
 8001602:	4622      	mov	r2, r4
 8001604:	462b      	mov	r3, r5
 8001606:	f7fe fe03 	bl	8000210 <__aeabi_dsub>
 800160a:	a343      	add	r3, pc, #268	; (adr r3, 8001718 <__ieee754_rem_pio2+0x318>)
 800160c:	e9d3 2300 	ldrd	r2, r3, [r3]
 8001610:	4604      	mov	r4, r0
 8001612:	460d      	mov	r5, r1
 8001614:	ec51 0b18 	vmov	r0, r1, d8
 8001618:	f7fe ffb2 	bl	8000580 <__aeabi_dmul>
 800161c:	4622      	mov	r2, r4
 800161e:	462b      	mov	r3, r5
 8001620:	f7fe fdf6 	bl	8000210 <__aeabi_dsub>
 8001624:	4602      	mov	r2, r0
 8001626:	460b      	mov	r3, r1
 8001628:	4604      	mov	r4, r0
 800162a:	460d      	mov	r5, r1
 800162c:	4640      	mov	r0, r8
 800162e:	4649      	mov	r1, r9
 8001630:	f7fe fdee 	bl	8000210 <__aeabi_dsub>
 8001634:	9a03      	ldr	r2, [sp, #12]
 8001636:	f3c1 530a 	ubfx	r3, r1, #20, #11
 800163a:	1ad3      	subs	r3, r2, r3
 800163c:	2b31      	cmp	r3, #49	; 0x31
 800163e:	dc24      	bgt.n	800168a <__ieee754_rem_pio2+0x28a>
 8001640:	e9ca 0100 	strd	r0, r1, [sl]
 8001644:	4646      	mov	r6, r8
 8001646:	464f      	mov	r7, r9
 8001648:	e9da 8900 	ldrd	r8, r9, [sl]
 800164c:	4630      	mov	r0, r6
 800164e:	4642      	mov	r2, r8
 8001650:	464b      	mov	r3, r9
 8001652:	4639      	mov	r1, r7
 8001654:	f7fe fddc 	bl	8000210 <__aeabi_dsub>
 8001658:	462b      	mov	r3, r5
 800165a:	4622      	mov	r2, r4
 800165c:	f7fe fdd8 	bl	8000210 <__aeabi_dsub>
 8001660:	9b02      	ldr	r3, [sp, #8]
 8001662:	2b00      	cmp	r3, #0
 8001664:	e9ca 0102 	strd	r0, r1, [sl, #8]
 8001668:	f6bf af0a 	bge.w	8001480 <__ieee754_rem_pio2+0x80>
 800166c:	f109 4300 	add.w	r3, r9, #2147483648	; 0x80000000
 8001670:	f8ca 3004 	str.w	r3, [sl, #4]
 8001674:	f101 4300 	add.w	r3, r1, #2147483648	; 0x80000000
 8001678:	f8ca 8000 	str.w	r8, [sl]
 800167c:	f8ca 0008 	str.w	r0, [sl, #8]
 8001680:	f8ca 300c 	str.w	r3, [sl, #12]
 8001684:	f1cb 0b00 	rsb	fp, fp, #0
 8001688:	e6fa      	b.n	8001480 <__ieee754_rem_pio2+0x80>
 800168a:	a327      	add	r3, pc, #156	; (adr r3, 8001728 <__ieee754_rem_pio2+0x328>)
 800168c:	e9d3 2300 	ldrd	r2, r3, [r3]
 8001690:	ec51 0b18 	vmov	r0, r1, d8
 8001694:	f7fe ff74 	bl	8000580 <__aeabi_dmul>
 8001698:	4604      	mov	r4, r0
 800169a:	460d      	mov	r5, r1
 800169c:	4602      	mov	r2, r0
 800169e:	460b      	mov	r3, r1
 80016a0:	4640      	mov	r0, r8
 80016a2:	4649      	mov	r1, r9
 80016a4:	f7fe fdb4 	bl	8000210 <__aeabi_dsub>
 80016a8:	4602      	mov	r2, r0
 80016aa:	460b      	mov	r3, r1
 80016ac:	4606      	mov	r6, r0
 80016ae:	460f      	mov	r7, r1
 80016b0:	4640      	mov	r0, r8
 80016b2:	4649      	mov	r1, r9
 80016b4:	f7fe fdac 	bl	8000210 <__aeabi_dsub>
 80016b8:	4622      	mov	r2, r4
 80016ba:	462b      	mov	r3, r5
 80016bc:	f7fe fda8 	bl	8000210 <__aeabi_dsub>
 80016c0:	a31b      	add	r3, pc, #108	; (adr r3, 8001730 <__ieee754_rem_pio2+0x330>)
 80016c2:	e9d3 2300 	ldrd	r2, r3, [r3]
 80016c6:	4604      	mov	r4, r0
 80016c8:	460d      	mov	r5, r1
 80016ca:	ec51 0b18 	vmov	r0, r1, d8
 80016ce:	f7fe ff57 	bl	8000580 <__aeabi_dmul>
 80016d2:	4622      	mov	r2, r4
 80016d4:	462b      	mov	r3, r5
 80016d6:	f7fe fd9b 	bl	8000210 <__aeabi_dsub>
 80016da:	4604      	mov	r4, r0
 80016dc:	460d      	mov	r5, r1
 80016de:	e75f      	b.n	80015a0 <__ieee754_rem_pio2+0x1a0>
 80016e0:	4b1b      	ldr	r3, [pc, #108]	; (8001750 <__ieee754_rem_pio2+0x350>)
 80016e2:	4598      	cmp	r8, r3
 80016e4:	dd36      	ble.n	8001754 <__ieee754_rem_pio2+0x354>
 80016e6:	ee10 2a10 	vmov	r2, s0
 80016ea:	462b      	mov	r3, r5
 80016ec:	4620      	mov	r0, r4
 80016ee:	4629      	mov	r1, r5
 80016f0:	f7fe fd8e 	bl	8000210 <__aeabi_dsub>
 80016f4:	e9ca 0102 	strd	r0, r1, [sl, #8]
 80016f8:	e9ca 0100 	strd	r0, r1, [sl]
 80016fc:	e694      	b.n	8001428 <__ieee754_rem_pio2+0x28>
 80016fe:	bf00      	nop
 8001700:	54400000 	.word	0x54400000
 8001704:	3ff921fb 	.word	0x3ff921fb
 8001708:	1a626331 	.word	0x1a626331
 800170c:	3dd0b461 	.word	0x3dd0b461
 8001710:	1a600000 	.word	0x1a600000
 8001714:	3dd0b461 	.word	0x3dd0b461
 8001718:	2e037073 	.word	0x2e037073
 800171c:	3ba3198a 	.word	0x3ba3198a
 8001720:	6dc9c883 	.word	0x6dc9c883
 8001724:	3fe45f30 	.word	0x3fe45f30
 8001728:	2e000000 	.word	0x2e000000
 800172c:	3ba3198a 	.word	0x3ba3198a
 8001730:	252049c1 	.word	0x252049c1
 8001734:	397b839a 	.word	0x397b839a
 8001738:	3fe921fb 	.word	0x3fe921fb
 800173c:	4002d97b 	.word	0x4002d97b
 8001740:	3ff921fb 	.word	0x3ff921fb
 8001744:	413921fb 	.word	0x413921fb
 8001748:	3fe00000 	.word	0x3fe00000
 800174c:	08002400 	.word	0x08002400
 8001750:	7fefffff 	.word	0x7fefffff
 8001754:	ea4f 5428 	mov.w	r4, r8, asr #20
 8001758:	f2a4 4416 	subw	r4, r4, #1046	; 0x416
 800175c:	ee10 0a10 	vmov	r0, s0
 8001760:	eba8 5104 	sub.w	r1, r8, r4, lsl #20
 8001764:	ee10 6a10 	vmov	r6, s0
 8001768:	460f      	mov	r7, r1
 800176a:	f7ff f9a3 	bl	8000ab4 <__aeabi_d2iz>
 800176e:	f7fe fe9d 	bl	80004ac <__aeabi_i2d>
 8001772:	4602      	mov	r2, r0
 8001774:	460b      	mov	r3, r1
 8001776:	4630      	mov	r0, r6
 8001778:	4639      	mov	r1, r7
 800177a:	e9cd 2304 	strd	r2, r3, [sp, #16]
 800177e:	f7fe fd47 	bl	8000210 <__aeabi_dsub>
 8001782:	4b23      	ldr	r3, [pc, #140]	; (8001810 <__ieee754_rem_pio2+0x410>)
 8001784:	2200      	movs	r2, #0
 8001786:	f7fe fefb 	bl	8000580 <__aeabi_dmul>
 800178a:	460f      	mov	r7, r1
 800178c:	4606      	mov	r6, r0
 800178e:	f7ff f991 	bl	8000ab4 <__aeabi_d2iz>
 8001792:	f7fe fe8b 	bl	80004ac <__aeabi_i2d>
 8001796:	4602      	mov	r2, r0
 8001798:	460b      	mov	r3, r1
 800179a:	4630      	mov	r0, r6
 800179c:	4639      	mov	r1, r7
 800179e:	e9cd 2306 	strd	r2, r3, [sp, #24]
 80017a2:	f7fe fd35 	bl	8000210 <__aeabi_dsub>
 80017a6:	4b1a      	ldr	r3, [pc, #104]	; (8001810 <__ieee754_rem_pio2+0x410>)
 80017a8:	2200      	movs	r2, #0
 80017aa:	f7fe fee9 	bl	8000580 <__aeabi_dmul>
 80017ae:	e9cd 0108 	strd	r0, r1, [sp, #32]
 80017b2:	ad04      	add	r5, sp, #16
 80017b4:	f04f 0803 	mov.w	r8, #3
 80017b8:	46a9      	mov	r9, r5
 80017ba:	2600      	movs	r6, #0
 80017bc:	2700      	movs	r7, #0
 80017be:	4632      	mov	r2, r6
 80017c0:	463b      	mov	r3, r7
 80017c2:	e9d5 0104 	ldrd	r0, r1, [r5, #16]
 80017c6:	46c3      	mov	fp, r8
 80017c8:	3d08      	subs	r5, #8
 80017ca:	f108 38ff 	add.w	r8, r8, #4294967295
 80017ce:	f7ff f93f 	bl	8000a50 <__aeabi_dcmpeq>
 80017d2:	2800      	cmp	r0, #0
 80017d4:	d1f3      	bne.n	80017be <__ieee754_rem_pio2+0x3be>
 80017d6:	4b0f      	ldr	r3, [pc, #60]	; (8001814 <__ieee754_rem_pio2+0x414>)
 80017d8:	9301      	str	r3, [sp, #4]
 80017da:	2302      	movs	r3, #2
 80017dc:	9300      	str	r3, [sp, #0]
 80017de:	4622      	mov	r2, r4
 80017e0:	465b      	mov	r3, fp
 80017e2:	4651      	mov	r1, sl
 80017e4:	4648      	mov	r0, r9
 80017e6:	f000 f8df 	bl	80019a8 <__kernel_rem_pio2>
 80017ea:	9b02      	ldr	r3, [sp, #8]
 80017ec:	2b00      	cmp	r3, #0
 80017ee:	4683      	mov	fp, r0
 80017f0:	f6bf ae46 	bge.w	8001480 <__ieee754_rem_pio2+0x80>
 80017f4:	e9da 2100 	ldrd	r2, r1, [sl]
 80017f8:	f101 4300 	add.w	r3, r1, #2147483648	; 0x80000000
 80017fc:	e9ca 2300 	strd	r2, r3, [sl]
 8001800:	e9da 2102 	ldrd	r2, r1, [sl, #8]
 8001804:	f101 4300 	add.w	r3, r1, #2147483648	; 0x80000000
 8001808:	e9ca 2302 	strd	r2, r3, [sl, #8]
 800180c:	e73a      	b.n	8001684 <__ieee754_rem_pio2+0x284>
 800180e:	bf00      	nop
 8001810:	41700000 	.word	0x41700000
 8001814:	08002480 	.word	0x08002480

08001818 <__kernel_cos>:
 8001818:	e92d 4ff7 	stmdb	sp!, {r0, r1, r2, r4, r5, r6, r7, r8, r9, sl, fp, lr}
 800181c:	ec57 6b10 	vmov	r6, r7, d0
 8001820:	f027 4800 	bic.w	r8, r7, #2147483648	; 0x80000000
 8001824:	f1b8 5f79 	cmp.w	r8, #1044381696	; 0x3e400000
 8001828:	ed8d 1b00 	vstr	d1, [sp]
 800182c:	da07      	bge.n	800183e <__kernel_cos+0x26>
 800182e:	ee10 0a10 	vmov	r0, s0
 8001832:	4639      	mov	r1, r7
 8001834:	f7ff f93e 	bl	8000ab4 <__aeabi_d2iz>
 8001838:	2800      	cmp	r0, #0
 800183a:	f000 8088 	beq.w	800194e <__kernel_cos+0x136>
 800183e:	4632      	mov	r2, r6
 8001840:	463b      	mov	r3, r7
 8001842:	4630      	mov	r0, r6
 8001844:	4639      	mov	r1, r7
 8001846:	f7fe fe9b 	bl	8000580 <__aeabi_dmul>
 800184a:	4b51      	ldr	r3, [pc, #324]	; (8001990 <__kernel_cos+0x178>)
 800184c:	2200      	movs	r2, #0
 800184e:	4604      	mov	r4, r0
 8001850:	460d      	mov	r5, r1
 8001852:	f7fe fe95 	bl	8000580 <__aeabi_dmul>
 8001856:	a340      	add	r3, pc, #256	; (adr r3, 8001958 <__kernel_cos+0x140>)
 8001858:	e9d3 2300 	ldrd	r2, r3, [r3]
 800185c:	4682      	mov	sl, r0
 800185e:	468b      	mov	fp, r1
 8001860:	4620      	mov	r0, r4
 8001862:	4629      	mov	r1, r5
 8001864:	f7fe fe8c 	bl	8000580 <__aeabi_dmul>
 8001868:	a33d      	add	r3, pc, #244	; (adr r3, 8001960 <__kernel_cos+0x148>)
 800186a:	e9d3 2300 	ldrd	r2, r3, [r3]
 800186e:	f7fe fcd1 	bl	8000214 <__adddf3>
 8001872:	4622      	mov	r2, r4
 8001874:	462b      	mov	r3, r5
 8001876:	f7fe fe83 	bl	8000580 <__aeabi_dmul>
 800187a:	a33b      	add	r3, pc, #236	; (adr r3, 8001968 <__kernel_cos+0x150>)
 800187c:	e9d3 2300 	ldrd	r2, r3, [r3]
 8001880:	f7fe fcc6 	bl	8000210 <__aeabi_dsub>
 8001884:	4622      	mov	r2, r4
 8001886:	462b      	mov	r3, r5
 8001888:	f7fe fe7a 	bl	8000580 <__aeabi_dmul>
 800188c:	a338      	add	r3, pc, #224	; (adr r3, 8001970 <__kernel_cos+0x158>)
 800188e:	e9d3 2300 	ldrd	r2, r3, [r3]
 8001892:	f7fe fcbf 	bl	8000214 <__adddf3>
 8001896:	4622      	mov	r2, r4
 8001898:	462b      	mov	r3, r5
 800189a:	f7fe fe71 	bl	8000580 <__aeabi_dmul>
 800189e:	a336      	add	r3, pc, #216	; (adr r3, 8001978 <__kernel_cos+0x160>)
 80018a0:	e9d3 2300 	ldrd	r2, r3, [r3]
 80018a4:	f7fe fcb4 	bl	8000210 <__aeabi_dsub>
 80018a8:	4622      	mov	r2, r4
 80018aa:	462b      	mov	r3, r5
 80018ac:	f7fe fe68 	bl	8000580 <__aeabi_dmul>
 80018b0:	a333      	add	r3, pc, #204	; (adr r3, 8001980 <__kernel_cos+0x168>)
 80018b2:	e9d3 2300 	ldrd	r2, r3, [r3]
 80018b6:	f7fe fcad 	bl	8000214 <__adddf3>
 80018ba:	4622      	mov	r2, r4
 80018bc:	462b      	mov	r3, r5
 80018be:	f7fe fe5f 	bl	8000580 <__aeabi_dmul>
 80018c2:	4622      	mov	r2, r4
 80018c4:	462b      	mov	r3, r5
 80018c6:	f7fe fe5b 	bl	8000580 <__aeabi_dmul>
 80018ca:	e9dd 2300 	ldrd	r2, r3, [sp]
 80018ce:	4604      	mov	r4, r0
 80018d0:	460d      	mov	r5, r1
 80018d2:	4630      	mov	r0, r6
 80018d4:	4639      	mov	r1, r7
 80018d6:	f7fe fe53 	bl	8000580 <__aeabi_dmul>
 80018da:	460b      	mov	r3, r1
 80018dc:	4602      	mov	r2, r0
 80018de:	4629      	mov	r1, r5
 80018e0:	4620      	mov	r0, r4
 80018e2:	f7fe fc95 	bl	8000210 <__aeabi_dsub>
 80018e6:	4b2b      	ldr	r3, [pc, #172]	; (8001994 <__kernel_cos+0x17c>)
 80018e8:	4598      	cmp	r8, r3
 80018ea:	4606      	mov	r6, r0
 80018ec:	460f      	mov	r7, r1
 80018ee:	dc10      	bgt.n	8001912 <__kernel_cos+0xfa>
 80018f0:	4602      	mov	r2, r0
 80018f2:	460b      	mov	r3, r1
 80018f4:	4650      	mov	r0, sl
 80018f6:	4659      	mov	r1, fp
 80018f8:	f7fe fc8a 	bl	8000210 <__aeabi_dsub>
 80018fc:	460b      	mov	r3, r1
 80018fe:	4926      	ldr	r1, [pc, #152]	; (8001998 <__kernel_cos+0x180>)
 8001900:	4602      	mov	r2, r0
 8001902:	2000      	movs	r0, #0
 8001904:	f7fe fc84 	bl	8000210 <__aeabi_dsub>
 8001908:	ec41 0b10 	vmov	d0, r0, r1
 800190c:	b003      	add	sp, #12
 800190e:	e8bd 8ff0 	ldmia.w	sp!, {r4, r5, r6, r7, r8, r9, sl, fp, pc}
 8001912:	4b22      	ldr	r3, [pc, #136]	; (800199c <__kernel_cos+0x184>)
 8001914:	4920      	ldr	r1, [pc, #128]	; (8001998 <__kernel_cos+0x180>)
 8001916:	4598      	cmp	r8, r3
 8001918:	bfcc      	ite	gt
 800191a:	4d21      	ldrgt	r5, [pc, #132]	; (80019a0 <__kernel_cos+0x188>)
 800191c:	f5a8 1500 	suble.w	r5, r8, #2097152	; 0x200000
 8001920:	2400      	movs	r4, #0
 8001922:	4622      	mov	r2, r4
 8001924:	462b      	mov	r3, r5
 8001926:	2000      	movs	r0, #0
 8001928:	f7fe fc72 	bl	8000210 <__aeabi_dsub>
 800192c:	4622      	mov	r2, r4
 800192e:	4680      	mov	r8, r0
 8001930:	4689      	mov	r9, r1
 8001932:	462b      	mov	r3, r5
 8001934:	4650      	mov	r0, sl
 8001936:	4659      	mov	r1, fp
 8001938:	f7fe fc6a 	bl	8000210 <__aeabi_dsub>
 800193c:	4632      	mov	r2, r6
 800193e:	463b      	mov	r3, r7
 8001940:	f7fe fc66 	bl	8000210 <__aeabi_dsub>
 8001944:	4602      	mov	r2, r0
 8001946:	460b      	mov	r3, r1
 8001948:	4640      	mov	r0, r8
 800194a:	4649      	mov	r1, r9
 800194c:	e7da      	b.n	8001904 <__kernel_cos+0xec>
 800194e:	ed9f 0b0e 	vldr	d0, [pc, #56]	; 8001988 <__kernel_cos+0x170>
 8001952:	e7db      	b.n	800190c <__kernel_cos+0xf4>
 8001954:	f3af 8000 	nop.w
 8001958:	be8838d4 	.word	0xbe8838d4
 800195c:	bda8fae9 	.word	0xbda8fae9
 8001960:	bdb4b1c4 	.word	0xbdb4b1c4
 8001964:	3e21ee9e 	.word	0x3e21ee9e
 8001968:	809c52ad 	.word	0x809c52ad
 800196c:	3e927e4f 	.word	0x3e927e4f
 8001970:	19cb1590 	.word	0x19cb1590
 8001974:	3efa01a0 	.word	0x3efa01a0
 8001978:	16c15177 	.word	0x16c15177
 800197c:	3f56c16c 	.word	0x3f56c16c
 8001980:	5555554c 	.word	0x5555554c
 8001984:	3fa55555 	.word	0x3fa55555
 8001988:	00000000 	.word	0x00000000
 800198c:	3ff00000 	.word	0x3ff00000
 8001990:	3fe00000 	.word	0x3fe00000
 8001994:	3fd33332 	.word	0x3fd33332
 8001998:	3ff00000 	.word	0x3ff00000
 800199c:	3fe90000 	.word	0x3fe90000
 80019a0:	3fd20000 	.word	0x3fd20000
 80019a4:	00000000 	.word	0x00000000

080019a8 <__kernel_rem_pio2>:
 80019a8:	e92d 4ff0 	stmdb	sp!, {r4, r5, r6, r7, r8, r9, sl, fp, lr}
 80019ac:	ed2d 8b02 	vpush	{d8}
 80019b0:	f5ad 7d1b 	sub.w	sp, sp, #620	; 0x26c
 80019b4:	f112 0f14 	cmn.w	r2, #20
 80019b8:	9308      	str	r3, [sp, #32]
 80019ba:	9101      	str	r1, [sp, #4]
 80019bc:	4bc4      	ldr	r3, [pc, #784]	; (8001cd0 <__kernel_rem_pio2+0x328>)
 80019be:	99a6      	ldr	r1, [sp, #664]	; 0x298
 80019c0:	900b      	str	r0, [sp, #44]	; 0x2c
 80019c2:	f853 3021 	ldr.w	r3, [r3, r1, lsl #2]
 80019c6:	9302      	str	r3, [sp, #8]
 80019c8:	9b08      	ldr	r3, [sp, #32]
 80019ca:	f103 33ff 	add.w	r3, r3, #4294967295
 80019ce:	bfa8      	it	ge
 80019d0:	1ed4      	subge	r4, r2, #3
 80019d2:	9306      	str	r3, [sp, #24]
 80019d4:	bfb2      	itee	lt
 80019d6:	2400      	movlt	r4, #0
 80019d8:	2318      	movge	r3, #24
 80019da:	fb94 f4f3 	sdivge	r4, r4, r3
 80019de:	f06f 0317 	mvn.w	r3, #23
 80019e2:	fb04 3303 	mla	r3, r4, r3, r3
 80019e6:	eb03 0a02 	add.w	sl, r3, r2
 80019ea:	9b02      	ldr	r3, [sp, #8]
 80019ec:	9a06      	ldr	r2, [sp, #24]
 80019ee:	ed9f 8bb4 	vldr	d8, [pc, #720]	; 8001cc0 <__kernel_rem_pio2+0x318>
 80019f2:	eb03 0802 	add.w	r8, r3, r2
 80019f6:	9ba7      	ldr	r3, [sp, #668]	; 0x29c
 80019f8:	1aa7      	subs	r7, r4, r2
 80019fa:	ae22      	add	r6, sp, #136	; 0x88
 80019fc:	eb03 0987 	add.w	r9, r3, r7, lsl #2
 8001a00:	2500      	movs	r5, #0
 8001a02:	4545      	cmp	r5, r8
 8001a04:	dd13      	ble.n	8001a2e <__kernel_rem_pio2+0x86>
 8001a06:	9b08      	ldr	r3, [sp, #32]
 8001a08:	ed9f 8bad 	vldr	d8, [pc, #692]	; 8001cc0 <__kernel_rem_pio2+0x318>
 8001a0c:	aa22      	add	r2, sp, #136	; 0x88
 8001a0e:	eb02 05c3 	add.w	r5, r2, r3, lsl #3
 8001a12:	f50d 7be4 	add.w	fp, sp, #456	; 0x1c8
 8001a16:	f04f 0800 	mov.w	r8, #0
 8001a1a:	9b02      	ldr	r3, [sp, #8]
 8001a1c:	4598      	cmp	r8, r3
 8001a1e:	dc2f      	bgt.n	8001a80 <__kernel_rem_pio2+0xd8>
 8001a20:	ed8d 8b04 	vstr	d8, [sp, #16]
 8001a24:	f8dd 902c 	ldr.w	r9, [sp, #44]	; 0x2c
 8001a28:	462f      	mov	r7, r5
 8001a2a:	2600      	movs	r6, #0
 8001a2c:	e01b      	b.n	8001a66 <__kernel_rem_pio2+0xbe>
 8001a2e:	42ef      	cmn	r7, r5
 8001a30:	d407      	bmi.n	8001a42 <__kernel_rem_pio2+0x9a>
 8001a32:	f859 0025 	ldr.w	r0, [r9, r5, lsl #2]
 8001a36:	f7fe fd39 	bl	80004ac <__aeabi_i2d>
 8001a3a:	e8e6 0102 	strd	r0, r1, [r6], #8
 8001a3e:	3501      	adds	r5, #1
 8001a40:	e7df      	b.n	8001a02 <__kernel_rem_pio2+0x5a>
 8001a42:	ec51 0b18 	vmov	r0, r1, d8
 8001a46:	e7f8      	b.n	8001a3a <__kernel_rem_pio2+0x92>
 8001a48:	e9d7 2300 	ldrd	r2, r3, [r7]
 8001a4c:	e8f9 0102 	ldrd	r0, r1, [r9], #8
 8001a50:	f7fe fd96 	bl	8000580 <__aeabi_dmul>
 8001a54:	4602      	mov	r2, r0
 8001a56:	460b      	mov	r3, r1
 8001a58:	e9dd 0104 	ldrd	r0, r1, [sp, #16]
 8001a5c:	f7fe fbda 	bl	8000214 <__adddf3>
 8001a60:	e9cd 0104 	strd	r0, r1, [sp, #16]
 8001a64:	3601      	adds	r6, #1
 8001a66:	9b06      	ldr	r3, [sp, #24]
 8001a68:	429e      	cmp	r6, r3
 8001a6a:	f1a7 0708 	sub.w	r7, r7, #8
 8001a6e:	ddeb      	ble.n	8001a48 <__kernel_rem_pio2+0xa0>
 8001a70:	ed9d 7b04 	vldr	d7, [sp, #16]
 8001a74:	f108 0801 	add.w	r8, r8, #1
 8001a78:	ecab 7b02 	vstmia	fp!, {d7}
 8001a7c:	3508      	adds	r5, #8
 8001a7e:	e7cc      	b.n	8001a1a <__kernel_rem_pio2+0x72>
 8001a80:	9b02      	ldr	r3, [sp, #8]
 8001a82:	aa0e      	add	r2, sp, #56	; 0x38
 8001a84:	eb02 0383 	add.w	r3, r2, r3, lsl #2
 8001a88:	930d      	str	r3, [sp, #52]	; 0x34
 8001a8a:	9ba7      	ldr	r3, [sp, #668]	; 0x29c
 8001a8c:	eb03 0384 	add.w	r3, r3, r4, lsl #2
 8001a90:	9c02      	ldr	r4, [sp, #8]
 8001a92:	930c      	str	r3, [sp, #48]	; 0x30
 8001a94:	00e3      	lsls	r3, r4, #3
 8001a96:	930a      	str	r3, [sp, #40]	; 0x28
 8001a98:	ab9a      	add	r3, sp, #616	; 0x268
 8001a9a:	eb03 03c4 	add.w	r3, r3, r4, lsl #3
 8001a9e:	e953 6728 	ldrd	r6, r7, [r3, #-160]	; 0xa0
 8001aa2:	f10d 0838 	add.w	r8, sp, #56	; 0x38
 8001aa6:	ab72      	add	r3, sp, #456	; 0x1c8
 8001aa8:	eb03 05c4 	add.w	r5, r3, r4, lsl #3
 8001aac:	46c3      	mov	fp, r8
 8001aae:	46a1      	mov	r9, r4
 8001ab0:	f1b9 0f00 	cmp.w	r9, #0
 8001ab4:	f1a5 0508 	sub.w	r5, r5, #8
 8001ab8:	dc77      	bgt.n	8001baa <__kernel_rem_pio2+0x202>
 8001aba:	ec47 6b10 	vmov	d0, r6, r7
 8001abe:	4650      	mov	r0, sl
 8001ac0:	f000 fc0a 	bl	80022d8 <scalbn>
 8001ac4:	ec57 6b10 	vmov	r6, r7, d0
 8001ac8:	2200      	movs	r2, #0
 8001aca:	f04f 537f 	mov.w	r3, #1069547520	; 0x3fc00000
 8001ace:	ee10 0a10 	vmov	r0, s0
 8001ad2:	4639      	mov	r1, r7
 8001ad4:	f7fe fd54 	bl	8000580 <__aeabi_dmul>
 8001ad8:	ec41 0b10 	vmov	d0, r0, r1
 8001adc:	f000 fb7c 	bl	80021d8 <floor>
 8001ae0:	4b7c      	ldr	r3, [pc, #496]	; (8001cd4 <__kernel_rem_pio2+0x32c>)
 8001ae2:	ec51 0b10 	vmov	r0, r1, d0
 8001ae6:	2200      	movs	r2, #0
 8001ae8:	f7fe fd4a 	bl	8000580 <__aeabi_dmul>
 8001aec:	4602      	mov	r2, r0
 8001aee:	460b      	mov	r3, r1
 8001af0:	4630      	mov	r0, r6
 8001af2:	4639      	mov	r1, r7
 8001af4:	f7fe fb8c 	bl	8000210 <__aeabi_dsub>
 8001af8:	460f      	mov	r7, r1
 8001afa:	4606      	mov	r6, r0
 8001afc:	f7fe ffda 	bl	8000ab4 <__aeabi_d2iz>
 8001b00:	9004      	str	r0, [sp, #16]
 8001b02:	f7fe fcd3 	bl	80004ac <__aeabi_i2d>
 8001b06:	4602      	mov	r2, r0
 8001b08:	460b      	mov	r3, r1
 8001b0a:	4630      	mov	r0, r6
 8001b0c:	4639      	mov	r1, r7
 8001b0e:	f7fe fb7f 	bl	8000210 <__aeabi_dsub>
 8001b12:	f1ba 0f00 	cmp.w	sl, #0
 8001b16:	4606      	mov	r6, r0
 8001b18:	460f      	mov	r7, r1
 8001b1a:	dd6d      	ble.n	8001bf8 <__kernel_rem_pio2+0x250>
 8001b1c:	1e62      	subs	r2, r4, #1
 8001b1e:	ab0e      	add	r3, sp, #56	; 0x38
 8001b20:	9d04      	ldr	r5, [sp, #16]
 8001b22:	f853 0022 	ldr.w	r0, [r3, r2, lsl #2]
 8001b26:	f1ca 0118 	rsb	r1, sl, #24
 8001b2a:	fa40 f301 	asr.w	r3, r0, r1
 8001b2e:	441d      	add	r5, r3
 8001b30:	408b      	lsls	r3, r1
 8001b32:	1ac0      	subs	r0, r0, r3
 8001b34:	ab0e      	add	r3, sp, #56	; 0x38
 8001b36:	9504      	str	r5, [sp, #16]
 8001b38:	f843 0022 	str.w	r0, [r3, r2, lsl #2]
 8001b3c:	f1ca 0317 	rsb	r3, sl, #23
 8001b40:	fa40 fb03 	asr.w	fp, r0, r3
 8001b44:	f1bb 0f00 	cmp.w	fp, #0
 8001b48:	dd65      	ble.n	8001c16 <__kernel_rem_pio2+0x26e>
 8001b4a:	9b04      	ldr	r3, [sp, #16]
 8001b4c:	2200      	movs	r2, #0
 8001b4e:	3301      	adds	r3, #1
 8001b50:	9304      	str	r3, [sp, #16]
 8001b52:	4615      	mov	r5, r2
 8001b54:	f06f 417f 	mvn.w	r1, #4278190080	; 0xff000000
 8001b58:	4294      	cmp	r4, r2
 8001b5a:	f300 809c 	bgt.w	8001c96 <__kernel_rem_pio2+0x2ee>
 8001b5e:	f1ba 0f00 	cmp.w	sl, #0
 8001b62:	dd07      	ble.n	8001b74 <__kernel_rem_pio2+0x1cc>
 8001b64:	f1ba 0f01 	cmp.w	sl, #1
 8001b68:	f000 80c0 	beq.w	8001cec <__kernel_rem_pio2+0x344>
 8001b6c:	f1ba 0f02 	cmp.w	sl, #2
 8001b70:	f000 80c6 	beq.w	8001d00 <__kernel_rem_pio2+0x358>
 8001b74:	f1bb 0f02 	cmp.w	fp, #2
 8001b78:	d14d      	bne.n	8001c16 <__kernel_rem_pio2+0x26e>
 8001b7a:	4632      	mov	r2, r6
 8001b7c:	463b      	mov	r3, r7
 8001b7e:	4956      	ldr	r1, [pc, #344]	; (8001cd8 <__kernel_rem_pio2+0x330>)
 8001b80:	2000      	movs	r0, #0
 8001b82:	f7fe fb45 	bl	8000210 <__aeabi_dsub>
 8001b86:	4606      	mov	r6, r0
 8001b88:	460f      	mov	r7, r1
 8001b8a:	2d00      	cmp	r5, #0
 8001b8c:	d043      	beq.n	8001c16 <__kernel_rem_pio2+0x26e>
 8001b8e:	4650      	mov	r0, sl
 8001b90:	ed9f 0b4d 	vldr	d0, [pc, #308]	; 8001cc8 <__kernel_rem_pio2+0x320>
 8001b94:	f000 fba0 	bl	80022d8 <scalbn>
 8001b98:	4630      	mov	r0, r6
 8001b9a:	4639      	mov	r1, r7
 8001b9c:	ec53 2b10 	vmov	r2, r3, d0
 8001ba0:	f7fe fb36 	bl	8000210 <__aeabi_dsub>
 8001ba4:	4606      	mov	r6, r0
 8001ba6:	460f      	mov	r7, r1
 8001ba8:	e035      	b.n	8001c16 <__kernel_rem_pio2+0x26e>
 8001baa:	4b4c      	ldr	r3, [pc, #304]	; (8001cdc <__kernel_rem_pio2+0x334>)
 8001bac:	2200      	movs	r2, #0
 8001bae:	4630      	mov	r0, r6
 8001bb0:	4639      	mov	r1, r7
 8001bb2:	f7fe fce5 	bl	8000580 <__aeabi_dmul>
 8001bb6:	f7fe ff7d 	bl	8000ab4 <__aeabi_d2iz>
 8001bba:	f7fe fc77 	bl	80004ac <__aeabi_i2d>
 8001bbe:	4602      	mov	r2, r0
 8001bc0:	460b      	mov	r3, r1
 8001bc2:	ec43 2b18 	vmov	d8, r2, r3
 8001bc6:	4b46      	ldr	r3, [pc, #280]	; (8001ce0 <__kernel_rem_pio2+0x338>)
 8001bc8:	2200      	movs	r2, #0
 8001bca:	f7fe fcd9 	bl	8000580 <__aeabi_dmul>
 8001bce:	4602      	mov	r2, r0
 8001bd0:	460b      	mov	r3, r1
 8001bd2:	4630      	mov	r0, r6
 8001bd4:	4639      	mov	r1, r7
 8001bd6:	f7fe fb1b 	bl	8000210 <__aeabi_dsub>
 8001bda:	f7fe ff6b 	bl	8000ab4 <__aeabi_d2iz>
 8001bde:	e9d5 2300 	ldrd	r2, r3, [r5]
 8001be2:	f84b 0b04 	str.w	r0, [fp], #4
 8001be6:	ec51 0b18 	vmov	r0, r1, d8
 8001bea:	f7fe fb13 	bl	8000214 <__adddf3>
 8001bee:	f109 39ff 	add.w	r9, r9, #4294967295
 8001bf2:	4606      	mov	r6, r0
 8001bf4:	460f      	mov	r7, r1
 8001bf6:	e75b      	b.n	8001ab0 <__kernel_rem_pio2+0x108>
 8001bf8:	d106      	bne.n	8001c08 <__kernel_rem_pio2+0x260>
 8001bfa:	1e63      	subs	r3, r4, #1
 8001bfc:	aa0e      	add	r2, sp, #56	; 0x38
 8001bfe:	f852 0023 	ldr.w	r0, [r2, r3, lsl #2]
 8001c02:	ea4f 5be0 	mov.w	fp, r0, asr #23
 8001c06:	e79d      	b.n	8001b44 <__kernel_rem_pio2+0x19c>
 8001c08:	4b36      	ldr	r3, [pc, #216]	; (8001ce4 <__kernel_rem_pio2+0x33c>)
 8001c0a:	2200      	movs	r2, #0
 8001c0c:	f7fe ff3e 	bl	8000a8c <__aeabi_dcmpge>
 8001c10:	2800      	cmp	r0, #0
 8001c12:	d13d      	bne.n	8001c90 <__kernel_rem_pio2+0x2e8>
 8001c14:	4683      	mov	fp, r0
 8001c16:	2200      	movs	r2, #0
 8001c18:	2300      	movs	r3, #0
 8001c1a:	4630      	mov	r0, r6
 8001c1c:	4639      	mov	r1, r7
 8001c1e:	f7fe ff17 	bl	8000a50 <__aeabi_dcmpeq>
 8001c22:	2800      	cmp	r0, #0
 8001c24:	f000 80c0 	beq.w	8001da8 <__kernel_rem_pio2+0x400>
 8001c28:	1e65      	subs	r5, r4, #1
 8001c2a:	462b      	mov	r3, r5
 8001c2c:	2200      	movs	r2, #0
 8001c2e:	9902      	ldr	r1, [sp, #8]
 8001c30:	428b      	cmp	r3, r1
 8001c32:	da6c      	bge.n	8001d0e <__kernel_rem_pio2+0x366>
 8001c34:	2a00      	cmp	r2, #0
 8001c36:	f000 8089 	beq.w	8001d4c <__kernel_rem_pio2+0x3a4>
 8001c3a:	ab0e      	add	r3, sp, #56	; 0x38
 8001c3c:	f1aa 0a18 	sub.w	sl, sl, #24
 8001c40:	f853 3025 	ldr.w	r3, [r3, r5, lsl #2]
 8001c44:	2b00      	cmp	r3, #0
 8001c46:	f000 80ad 	beq.w	8001da4 <__kernel_rem_pio2+0x3fc>
 8001c4a:	4650      	mov	r0, sl
 8001c4c:	ed9f 0b1e 	vldr	d0, [pc, #120]	; 8001cc8 <__kernel_rem_pio2+0x320>
 8001c50:	f000 fb42 	bl	80022d8 <scalbn>
 8001c54:	ab9a      	add	r3, sp, #616	; 0x268
 8001c56:	eb03 03c5 	add.w	r3, r3, r5, lsl #3
 8001c5a:	ec57 6b10 	vmov	r6, r7, d0
 8001c5e:	00ec      	lsls	r4, r5, #3
 8001c60:	f1a3 0898 	sub.w	r8, r3, #152	; 0x98
 8001c64:	46aa      	mov	sl, r5
 8001c66:	f1ba 0f00 	cmp.w	sl, #0
 8001c6a:	f280 80d6 	bge.w	8001e1a <__kernel_rem_pio2+0x472>
 8001c6e:	ed9f 8b14 	vldr	d8, [pc, #80]	; 8001cc0 <__kernel_rem_pio2+0x318>
 8001c72:	462e      	mov	r6, r5
 8001c74:	2e00      	cmp	r6, #0
 8001c76:	f2c0 8104 	blt.w	8001e82 <__kernel_rem_pio2+0x4da>
 8001c7a:	ab72      	add	r3, sp, #456	; 0x1c8
 8001c7c:	ed8d 8b06 	vstr	d8, [sp, #24]
 8001c80:	f8df a064 	ldr.w	sl, [pc, #100]	; 8001ce8 <__kernel_rem_pio2+0x340>
 8001c84:	eb03 09c6 	add.w	r9, r3, r6, lsl #3
 8001c88:	f04f 0800 	mov.w	r8, #0
 8001c8c:	1baf      	subs	r7, r5, r6
 8001c8e:	e0ea      	b.n	8001e66 <__kernel_rem_pio2+0x4be>
 8001c90:	f04f 0b02 	mov.w	fp, #2
 8001c94:	e759      	b.n	8001b4a <__kernel_rem_pio2+0x1a2>
 8001c96:	f8d8 3000 	ldr.w	r3, [r8]
 8001c9a:	b955      	cbnz	r5, 8001cb2 <__kernel_rem_pio2+0x30a>
 8001c9c:	b123      	cbz	r3, 8001ca8 <__kernel_rem_pio2+0x300>
 8001c9e:	f1c3 7380 	rsb	r3, r3, #16777216	; 0x1000000
 8001ca2:	f8c8 3000 	str.w	r3, [r8]
 8001ca6:	2301      	movs	r3, #1
 8001ca8:	3201      	adds	r2, #1
 8001caa:	f108 0804 	add.w	r8, r8, #4
 8001cae:	461d      	mov	r5, r3
 8001cb0:	e752      	b.n	8001b58 <__kernel_rem_pio2+0x1b0>
 8001cb2:	1acb      	subs	r3, r1, r3
 8001cb4:	f8c8 3000 	str.w	r3, [r8]
 8001cb8:	462b      	mov	r3, r5
 8001cba:	e7f5      	b.n	8001ca8 <__kernel_rem_pio2+0x300>
 8001cbc:	f3af 8000 	nop.w
	...
 8001ccc:	3ff00000 	.word	0x3ff00000
 8001cd0:	080025c8 	.word	0x080025c8
 8001cd4:	40200000 	.word	0x40200000
 8001cd8:	3ff00000 	.word	0x3ff00000
 8001cdc:	3e700000 	.word	0x3e700000
 8001ce0:	41700000 	.word	0x41700000
 8001ce4:	3fe00000 	.word	0x3fe00000
 8001ce8:	08002588 	.word	0x08002588
 8001cec:	1e62      	subs	r2, r4, #1
 8001cee:	ab0e      	add	r3, sp, #56	; 0x38
 8001cf0:	f853 3022 	ldr.w	r3, [r3, r2, lsl #2]
 8001cf4:	f3c3 0316 	ubfx	r3, r3, #0, #23
 8001cf8:	a90e      	add	r1, sp, #56	; 0x38
 8001cfa:	f841 3022 	str.w	r3, [r1, r2, lsl #2]
 8001cfe:	e739      	b.n	8001b74 <__kernel_rem_pio2+0x1cc>
 8001d00:	1e62      	subs	r2, r4, #1
 8001d02:	ab0e      	add	r3, sp, #56	; 0x38
 8001d04:	f853 3022 	ldr.w	r3, [r3, r2, lsl #2]
 8001d08:	f3c3 0315 	ubfx	r3, r3, #0, #22
 8001d0c:	e7f4      	b.n	8001cf8 <__kernel_rem_pio2+0x350>
 8001d0e:	a90e      	add	r1, sp, #56	; 0x38
 8001d10:	f851 1023 	ldr.w	r1, [r1, r3, lsl #2]
 8001d14:	3b01      	subs	r3, #1
 8001d16:	430a      	orrs	r2, r1
 8001d18:	e789      	b.n	8001c2e <__kernel_rem_pio2+0x286>
 8001d1a:	3301      	adds	r3, #1
 8001d1c:	f852 1d04 	ldr.w	r1, [r2, #-4]!
 8001d20:	2900      	cmp	r1, #0
 8001d22:	d0fa      	beq.n	8001d1a <__kernel_rem_pio2+0x372>
 8001d24:	9a0a      	ldr	r2, [sp, #40]	; 0x28
 8001d26:	f502 721a 	add.w	r2, r2, #616	; 0x268
 8001d2a:	446a      	add	r2, sp
 8001d2c:	3a98      	subs	r2, #152	; 0x98
 8001d2e:	920a      	str	r2, [sp, #40]	; 0x28
 8001d30:	9a08      	ldr	r2, [sp, #32]
 8001d32:	18e3      	adds	r3, r4, r3
 8001d34:	18a5      	adds	r5, r4, r2
 8001d36:	aa22      	add	r2, sp, #136	; 0x88
 8001d38:	f104 0801 	add.w	r8, r4, #1
 8001d3c:	eb02 05c5 	add.w	r5, r2, r5, lsl #3
 8001d40:	9304      	str	r3, [sp, #16]
 8001d42:	9b04      	ldr	r3, [sp, #16]
 8001d44:	4543      	cmp	r3, r8
 8001d46:	da04      	bge.n	8001d52 <__kernel_rem_pio2+0x3aa>
 8001d48:	461c      	mov	r4, r3
 8001d4a:	e6a3      	b.n	8001a94 <__kernel_rem_pio2+0xec>
 8001d4c:	9a0d      	ldr	r2, [sp, #52]	; 0x34
 8001d4e:	2301      	movs	r3, #1
 8001d50:	e7e4      	b.n	8001d1c <__kernel_rem_pio2+0x374>
 8001d52:	9b0c      	ldr	r3, [sp, #48]	; 0x30
 8001d54:	f853 0028 	ldr.w	r0, [r3, r8, lsl #2]
 8001d58:	f7fe fba8 	bl	80004ac <__aeabi_i2d>
 8001d5c:	e8e5 0102 	strd	r0, r1, [r5], #8
 8001d60:	9b0b      	ldr	r3, [sp, #44]	; 0x2c
 8001d62:	46ab      	mov	fp, r5
 8001d64:	461c      	mov	r4, r3
 8001d66:	f04f 0900 	mov.w	r9, #0
 8001d6a:	2600      	movs	r6, #0
 8001d6c:	2700      	movs	r7, #0
 8001d6e:	9b06      	ldr	r3, [sp, #24]
 8001d70:	4599      	cmp	r9, r3
 8001d72:	dd06      	ble.n	8001d82 <__kernel_rem_pio2+0x3da>
 8001d74:	9b0a      	ldr	r3, [sp, #40]	; 0x28
 8001d76:	e8e3 6702 	strd	r6, r7, [r3], #8
 8001d7a:	f108 0801 	add.w	r8, r8, #1
 8001d7e:	930a      	str	r3, [sp, #40]	; 0x28
 8001d80:	e7df      	b.n	8001d42 <__kernel_rem_pio2+0x39a>
 8001d82:	e97b 2302 	ldrd	r2, r3, [fp, #-8]!
 8001d86:	e8f4 0102 	ldrd	r0, r1, [r4], #8
 8001d8a:	f7fe fbf9 	bl	8000580 <__aeabi_dmul>
 8001d8e:	4602      	mov	r2, r0
 8001d90:	460b      	mov	r3, r1
 8001d92:	4630      	mov	r0, r6
 8001d94:	4639      	mov	r1, r7
 8001d96:	f7fe fa3d 	bl	8000214 <__adddf3>
 8001d9a:	f109 0901 	add.w	r9, r9, #1
 8001d9e:	4606      	mov	r6, r0
 8001da0:	460f      	mov	r7, r1
 8001da2:	e7e4      	b.n	8001d6e <__kernel_rem_pio2+0x3c6>
 8001da4:	3d01      	subs	r5, #1
 8001da6:	e748      	b.n	8001c3a <__kernel_rem_pio2+0x292>
 8001da8:	ec47 6b10 	vmov	d0, r6, r7
 8001dac:	f1ca 0000 	rsb	r0, sl, #0
 8001db0:	f000 fa92 	bl	80022d8 <scalbn>
 8001db4:	ec57 6b10 	vmov	r6, r7, d0
 8001db8:	4ba0      	ldr	r3, [pc, #640]	; (800203c <__kernel_rem_pio2+0x694>)
 8001dba:	ee10 0a10 	vmov	r0, s0
 8001dbe:	2200      	movs	r2, #0
 8001dc0:	4639      	mov	r1, r7
 8001dc2:	f7fe fe63 	bl	8000a8c <__aeabi_dcmpge>
 8001dc6:	b1f8      	cbz	r0, 8001e08 <__kernel_rem_pio2+0x460>
 8001dc8:	4b9d      	ldr	r3, [pc, #628]	; (8002040 <__kernel_rem_pio2+0x698>)
 8001dca:	2200      	movs	r2, #0
 8001dcc:	4630      	mov	r0, r6
 8001dce:	4639      	mov	r1, r7
 8001dd0:	f7fe fbd6 	bl	8000580 <__aeabi_dmul>
 8001dd4:	f7fe fe6e 	bl	8000ab4 <__aeabi_d2iz>
 8001dd8:	4680      	mov	r8, r0
 8001dda:	f7fe fb67 	bl	80004ac <__aeabi_i2d>
 8001dde:	4b97      	ldr	r3, [pc, #604]	; (800203c <__kernel_rem_pio2+0x694>)
 8001de0:	2200      	movs	r2, #0
 8001de2:	f7fe fbcd 	bl	8000580 <__aeabi_dmul>
 8001de6:	460b      	mov	r3, r1
 8001de8:	4602      	mov	r2, r0
 8001dea:	4639      	mov	r1, r7
 8001dec:	4630      	mov	r0, r6
 8001dee:	f7fe fa0f 	bl	8000210 <__aeabi_dsub>
 8001df2:	f7fe fe5f 	bl	8000ab4 <__aeabi_d2iz>
 8001df6:	1c65      	adds	r5, r4, #1
 8001df8:	ab0e      	add	r3, sp, #56	; 0x38
 8001dfa:	f10a 0a18 	add.w	sl, sl, #24
 8001dfe:	f843 0024 	str.w	r0, [r3, r4, lsl #2]
 8001e02:	f843 8025 	str.w	r8, [r3, r5, lsl #2]
 8001e06:	e720      	b.n	8001c4a <__kernel_rem_pio2+0x2a2>
 8001e08:	4630      	mov	r0, r6
 8001e0a:	4639      	mov	r1, r7
 8001e0c:	f7fe fe52 	bl	8000ab4 <__aeabi_d2iz>
 8001e10:	ab0e      	add	r3, sp, #56	; 0x38
 8001e12:	4625      	mov	r5, r4
 8001e14:	f843 0024 	str.w	r0, [r3, r4, lsl #2]
 8001e18:	e717      	b.n	8001c4a <__kernel_rem_pio2+0x2a2>
 8001e1a:	ab0e      	add	r3, sp, #56	; 0x38
 8001e1c:	f853 002a 	ldr.w	r0, [r3, sl, lsl #2]
 8001e20:	f7fe fb44 	bl	80004ac <__aeabi_i2d>
 8001e24:	4632      	mov	r2, r6
 8001e26:	463b      	mov	r3, r7
 8001e28:	f7fe fbaa 	bl	8000580 <__aeabi_dmul>
 8001e2c:	4b84      	ldr	r3, [pc, #528]	; (8002040 <__kernel_rem_pio2+0x698>)
 8001e2e:	e968 0102 	strd	r0, r1, [r8, #-8]!
 8001e32:	2200      	movs	r2, #0
 8001e34:	4630      	mov	r0, r6
 8001e36:	4639      	mov	r1, r7
 8001e38:	f7fe fba2 	bl	8000580 <__aeabi_dmul>
 8001e3c:	f10a 3aff 	add.w	sl, sl, #4294967295
 8001e40:	4606      	mov	r6, r0
 8001e42:	460f      	mov	r7, r1
 8001e44:	e70f      	b.n	8001c66 <__kernel_rem_pio2+0x2be>
 8001e46:	e8f9 2302 	ldrd	r2, r3, [r9], #8
 8001e4a:	e8fa 0102 	ldrd	r0, r1, [sl], #8
 8001e4e:	f7fe fb97 	bl	8000580 <__aeabi_dmul>
 8001e52:	4602      	mov	r2, r0
 8001e54:	460b      	mov	r3, r1
 8001e56:	e9dd 0106 	ldrd	r0, r1, [sp, #24]
 8001e5a:	f7fe f9db 	bl	8000214 <__adddf3>
 8001e5e:	e9cd 0106 	strd	r0, r1, [sp, #24]
 8001e62:	f108 0801 	add.w	r8, r8, #1
 8001e66:	9b02      	ldr	r3, [sp, #8]
 8001e68:	4598      	cmp	r8, r3
 8001e6a:	dc01      	bgt.n	8001e70 <__kernel_rem_pio2+0x4c8>
 8001e6c:	45b8      	cmp	r8, r7
 8001e6e:	ddea      	ble.n	8001e46 <__kernel_rem_pio2+0x49e>
 8001e70:	ed9d 7b06 	vldr	d7, [sp, #24]
 8001e74:	ab4a      	add	r3, sp, #296	; 0x128
 8001e76:	eb03 07c7 	add.w	r7, r3, r7, lsl #3
 8001e7a:	ed87 7b00 	vstr	d7, [r7]
 8001e7e:	3e01      	subs	r6, #1
 8001e80:	e6f8      	b.n	8001c74 <__kernel_rem_pio2+0x2cc>
 8001e82:	9ba6      	ldr	r3, [sp, #664]	; 0x298
 8001e84:	2b02      	cmp	r3, #2
 8001e86:	dc0b      	bgt.n	8001ea0 <__kernel_rem_pio2+0x4f8>
 8001e88:	2b00      	cmp	r3, #0
 8001e8a:	dc35      	bgt.n	8001ef8 <__kernel_rem_pio2+0x550>
 8001e8c:	d059      	beq.n	8001f42 <__kernel_rem_pio2+0x59a>
 8001e8e:	9b04      	ldr	r3, [sp, #16]
 8001e90:	f003 0007 	and.w	r0, r3, #7
 8001e94:	f50d 7d1b 	add.w	sp, sp, #620	; 0x26c
 8001e98:	ecbd 8b02 	vpop	{d8}
 8001e9c:	e8bd 8ff0 	ldmia.w	sp!, {r4, r5, r6, r7, r8, r9, sl, fp, pc}
 8001ea0:	9ba6      	ldr	r3, [sp, #664]	; 0x298
 8001ea2:	2b03      	cmp	r3, #3
 8001ea4:	d1f3      	bne.n	8001e8e <__kernel_rem_pio2+0x4e6>
 8001ea6:	ab4a      	add	r3, sp, #296	; 0x128
 8001ea8:	4423      	add	r3, r4
 8001eaa:	9306      	str	r3, [sp, #24]
 8001eac:	461c      	mov	r4, r3
 8001eae:	469a      	mov	sl, r3
 8001eb0:	9502      	str	r5, [sp, #8]
 8001eb2:	9b02      	ldr	r3, [sp, #8]
 8001eb4:	2b00      	cmp	r3, #0
 8001eb6:	f1aa 0a08 	sub.w	sl, sl, #8
 8001eba:	dc6b      	bgt.n	8001f94 <__kernel_rem_pio2+0x5ec>
 8001ebc:	46aa      	mov	sl, r5
 8001ebe:	f1ba 0f01 	cmp.w	sl, #1
 8001ec2:	f1a4 0408 	sub.w	r4, r4, #8
 8001ec6:	f300 8085 	bgt.w	8001fd4 <__kernel_rem_pio2+0x62c>
 8001eca:	9c06      	ldr	r4, [sp, #24]
 8001ecc:	2000      	movs	r0, #0
 8001ece:	3408      	adds	r4, #8
 8001ed0:	2100      	movs	r1, #0
 8001ed2:	2d01      	cmp	r5, #1
 8001ed4:	f300 809d 	bgt.w	8002012 <__kernel_rem_pio2+0x66a>
 8001ed8:	e9dd 564a 	ldrd	r5, r6, [sp, #296]	; 0x128
 8001edc:	e9dd 784c 	ldrd	r7, r8, [sp, #304]	; 0x130
 8001ee0:	f1bb 0f00 	cmp.w	fp, #0
 8001ee4:	f040 809b 	bne.w	800201e <__kernel_rem_pio2+0x676>
 8001ee8:	9b01      	ldr	r3, [sp, #4]
 8001eea:	e9c3 5600 	strd	r5, r6, [r3]
 8001eee:	e9c3 7802 	strd	r7, r8, [r3, #8]
 8001ef2:	e9c3 0104 	strd	r0, r1, [r3, #16]
 8001ef6:	e7ca      	b.n	8001e8e <__kernel_rem_pio2+0x4e6>
 8001ef8:	3408      	adds	r4, #8
 8001efa:	ab4a      	add	r3, sp, #296	; 0x128
 8001efc:	441c      	add	r4, r3
 8001efe:	462e      	mov	r6, r5
 8001f00:	2000      	movs	r0, #0
 8001f02:	2100      	movs	r1, #0
 8001f04:	2e00      	cmp	r6, #0
 8001f06:	da36      	bge.n	8001f76 <__kernel_rem_pio2+0x5ce>
 8001f08:	f1bb 0f00 	cmp.w	fp, #0
 8001f0c:	d039      	beq.n	8001f82 <__kernel_rem_pio2+0x5da>
 8001f0e:	4602      	mov	r2, r0
 8001f10:	f101 4300 	add.w	r3, r1, #2147483648	; 0x80000000
 8001f14:	9c01      	ldr	r4, [sp, #4]
 8001f16:	e9c4 2300 	strd	r2, r3, [r4]
 8001f1a:	4602      	mov	r2, r0
 8001f1c:	460b      	mov	r3, r1
 8001f1e:	e9dd 014a 	ldrd	r0, r1, [sp, #296]	; 0x128
 8001f22:	f7fe f975 	bl	8000210 <__aeabi_dsub>
 8001f26:	ae4c      	add	r6, sp, #304	; 0x130
 8001f28:	2401      	movs	r4, #1
 8001f2a:	42a5      	cmp	r5, r4
 8001f2c:	da2c      	bge.n	8001f88 <__kernel_rem_pio2+0x5e0>
 8001f2e:	f1bb 0f00 	cmp.w	fp, #0
 8001f32:	d002      	beq.n	8001f3a <__kernel_rem_pio2+0x592>
 8001f34:	f101 4300 	add.w	r3, r1, #2147483648	; 0x80000000
 8001f38:	4619      	mov	r1, r3
 8001f3a:	9b01      	ldr	r3, [sp, #4]
 8001f3c:	e9c3 0102 	strd	r0, r1, [r3, #8]
 8001f40:	e7a5      	b.n	8001e8e <__kernel_rem_pio2+0x4e6>
 8001f42:	f504 731a 	add.w	r3, r4, #616	; 0x268
 8001f46:	eb0d 0403 	add.w	r4, sp, r3
 8001f4a:	f5a4 749c 	sub.w	r4, r4, #312	; 0x138
 8001f4e:	2000      	movs	r0, #0
 8001f50:	2100      	movs	r1, #0
 8001f52:	2d00      	cmp	r5, #0
 8001f54:	da09      	bge.n	8001f6a <__kernel_rem_pio2+0x5c2>
 8001f56:	f1bb 0f00 	cmp.w	fp, #0
 8001f5a:	d002      	beq.n	8001f62 <__kernel_rem_pio2+0x5ba>
 8001f5c:	f101 4300 	add.w	r3, r1, #2147483648	; 0x80000000
 8001f60:	4619      	mov	r1, r3
 8001f62:	9b01      	ldr	r3, [sp, #4]
 8001f64:	e9c3 0100 	strd	r0, r1, [r3]
 8001f68:	e791      	b.n	8001e8e <__kernel_rem_pio2+0x4e6>
 8001f6a:	e974 2302 	ldrd	r2, r3, [r4, #-8]!
 8001f6e:	f7fe f951 	bl	8000214 <__adddf3>
 8001f72:	3d01      	subs	r5, #1
 8001f74:	e7ed      	b.n	8001f52 <__kernel_rem_pio2+0x5aa>
 8001f76:	e974 2302 	ldrd	r2, r3, [r4, #-8]!
 8001f7a:	f7fe f94b 	bl	8000214 <__adddf3>
 8001f7e:	3e01      	subs	r6, #1
 8001f80:	e7c0      	b.n	8001f04 <__kernel_rem_pio2+0x55c>
 8001f82:	4602      	mov	r2, r0
 8001f84:	460b      	mov	r3, r1
 8001f86:	e7c5      	b.n	8001f14 <__kernel_rem_pio2+0x56c>
 8001f88:	e8f6 2302 	ldrd	r2, r3, [r6], #8
 8001f8c:	f7fe f942 	bl	8000214 <__adddf3>
 8001f90:	3401      	adds	r4, #1
 8001f92:	e7ca      	b.n	8001f2a <__kernel_rem_pio2+0x582>
 8001f94:	e9da 8900 	ldrd	r8, r9, [sl]
 8001f98:	e9da 6702 	ldrd	r6, r7, [sl, #8]
 8001f9c:	9b02      	ldr	r3, [sp, #8]
 8001f9e:	3b01      	subs	r3, #1
 8001fa0:	9302      	str	r3, [sp, #8]
 8001fa2:	4632      	mov	r2, r6
 8001fa4:	463b      	mov	r3, r7
 8001fa6:	4640      	mov	r0, r8
 8001fa8:	4649      	mov	r1, r9
 8001faa:	f7fe f933 	bl	8000214 <__adddf3>
 8001fae:	e9cd 0108 	strd	r0, r1, [sp, #32]
 8001fb2:	4602      	mov	r2, r0
 8001fb4:	460b      	mov	r3, r1
 8001fb6:	4640      	mov	r0, r8
 8001fb8:	4649      	mov	r1, r9
 8001fba:	f7fe f929 	bl	8000210 <__aeabi_dsub>
 8001fbe:	4632      	mov	r2, r6
 8001fc0:	463b      	mov	r3, r7
 8001fc2:	f7fe f927 	bl	8000214 <__adddf3>
 8001fc6:	ed9d 7b08 	vldr	d7, [sp, #32]
 8001fca:	e9ca 0102 	strd	r0, r1, [sl, #8]
 8001fce:	ed8a 7b00 	vstr	d7, [sl]
 8001fd2:	e76e      	b.n	8001eb2 <__kernel_rem_pio2+0x50a>
 8001fd4:	e9d4 8900 	ldrd	r8, r9, [r4]
 8001fd8:	e9d4 6702 	ldrd	r6, r7, [r4, #8]
 8001fdc:	4640      	mov	r0, r8
 8001fde:	4632      	mov	r2, r6
 8001fe0:	463b      	mov	r3, r7
 8001fe2:	4649      	mov	r1, r9
 8001fe4:	f7fe f916 	bl	8000214 <__adddf3>
 8001fe8:	e9cd 0102 	strd	r0, r1, [sp, #8]
 8001fec:	4602      	mov	r2, r0
 8001fee:	460b      	mov	r3, r1
 8001ff0:	4640      	mov	r0, r8
 8001ff2:	4649      	mov	r1, r9
 8001ff4:	f7fe f90c 	bl	8000210 <__aeabi_dsub>
 8001ff8:	4632      	mov	r2, r6
 8001ffa:	463b      	mov	r3, r7
 8001ffc:	f7fe f90a 	bl	8000214 <__adddf3>
 8002000:	ed9d 7b02 	vldr	d7, [sp, #8]
 8002004:	e9c4 0102 	strd	r0, r1, [r4, #8]
 8002008:	ed84 7b00 	vstr	d7, [r4]
 800200c:	f10a 3aff 	add.w	sl, sl, #4294967295
 8002010:	e755      	b.n	8001ebe <__kernel_rem_pio2+0x516>
 8002012:	e974 2302 	ldrd	r2, r3, [r4, #-8]!
 8002016:	f7fe f8fd 	bl	8000214 <__adddf3>
 800201a:	3d01      	subs	r5, #1
 800201c:	e759      	b.n	8001ed2 <__kernel_rem_pio2+0x52a>
 800201e:	9b01      	ldr	r3, [sp, #4]
 8002020:	9a01      	ldr	r2, [sp, #4]
 8002022:	601d      	str	r5, [r3, #0]
 8002024:	f106 4400 	add.w	r4, r6, #2147483648	; 0x80000000
 8002028:	605c      	str	r4, [r3, #4]
 800202a:	609f      	str	r7, [r3, #8]
 800202c:	f108 4300 	add.w	r3, r8, #2147483648	; 0x80000000
 8002030:	60d3      	str	r3, [r2, #12]
 8002032:	f101 4300 	add.w	r3, r1, #2147483648	; 0x80000000
 8002036:	6110      	str	r0, [r2, #16]
 8002038:	6153      	str	r3, [r2, #20]
 800203a:	e728      	b.n	8001e8e <__kernel_rem_pio2+0x4e6>
 800203c:	41700000 	.word	0x41700000
 8002040:	3e700000 	.word	0x3e700000
 8002044:	00000000 	.word	0x00000000

08002048 <__kernel_sin>:
 8002048:	e92d 4ff0 	stmdb	sp!, {r4, r5, r6, r7, r8, r9, sl, fp, lr}
 800204c:	ed2d 8b04 	vpush	{d8-d9}
 8002050:	eeb0 8a41 	vmov.f32	s16, s2
 8002054:	eef0 8a61 	vmov.f32	s17, s3
 8002058:	ec55 4b10 	vmov	r4, r5, d0
 800205c:	b083      	sub	sp, #12
 800205e:	f025 4300 	bic.w	r3, r5, #2147483648	; 0x80000000
 8002062:	f1b3 5f79 	cmp.w	r3, #1044381696	; 0x3e400000
 8002066:	9001      	str	r0, [sp, #4]
 8002068:	da06      	bge.n	8002078 <__kernel_sin+0x30>
 800206a:	ee10 0a10 	vmov	r0, s0
 800206e:	4629      	mov	r1, r5
 8002070:	f7fe fd20 	bl	8000ab4 <__aeabi_d2iz>
 8002074:	2800      	cmp	r0, #0
 8002076:	d051      	beq.n	800211c <__kernel_sin+0xd4>
 8002078:	4622      	mov	r2, r4
 800207a:	462b      	mov	r3, r5
 800207c:	4620      	mov	r0, r4
 800207e:	4629      	mov	r1, r5
 8002080:	f7fe fa7e 	bl	8000580 <__aeabi_dmul>
 8002084:	4682      	mov	sl, r0
 8002086:	468b      	mov	fp, r1
 8002088:	4602      	mov	r2, r0
 800208a:	460b      	mov	r3, r1
 800208c:	4620      	mov	r0, r4
 800208e:	4629      	mov	r1, r5
 8002090:	f7fe fa76 	bl	8000580 <__aeabi_dmul>
 8002094:	a341      	add	r3, pc, #260	; (adr r3, 800219c <__kernel_sin+0x154>)
 8002096:	e9d3 2300 	ldrd	r2, r3, [r3]
 800209a:	4680      	mov	r8, r0
 800209c:	4689      	mov	r9, r1
 800209e:	4650      	mov	r0, sl
 80020a0:	4659      	mov	r1, fp
 80020a2:	f7fe fa6d 	bl	8000580 <__aeabi_dmul>
 80020a6:	a33f      	add	r3, pc, #252	; (adr r3, 80021a4 <__kernel_sin+0x15c>)
 80020a8:	e9d3 2300 	ldrd	r2, r3, [r3]
 80020ac:	f7fe f8b0 	bl	8000210 <__aeabi_dsub>
 80020b0:	4652      	mov	r2, sl
 80020b2:	465b      	mov	r3, fp
 80020b4:	f7fe fa64 	bl	8000580 <__aeabi_dmul>
 80020b8:	a33c      	add	r3, pc, #240	; (adr r3, 80021ac <__kernel_sin+0x164>)
 80020ba:	e9d3 2300 	ldrd	r2, r3, [r3]
 80020be:	f7fe f8a9 	bl	8000214 <__adddf3>
 80020c2:	4652      	mov	r2, sl
 80020c4:	465b      	mov	r3, fp
 80020c6:	f7fe fa5b 	bl	8000580 <__aeabi_dmul>
 80020ca:	a33a      	add	r3, pc, #232	; (adr r3, 80021b4 <__kernel_sin+0x16c>)
 80020cc:	e9d3 2300 	ldrd	r2, r3, [r3]
 80020d0:	f7fe f89e 	bl	8000210 <__aeabi_dsub>
 80020d4:	4652      	mov	r2, sl
 80020d6:	465b      	mov	r3, fp
 80020d8:	f7fe fa52 	bl	8000580 <__aeabi_dmul>
 80020dc:	a337      	add	r3, pc, #220	; (adr r3, 80021bc <__kernel_sin+0x174>)
 80020de:	e9d3 2300 	ldrd	r2, r3, [r3]
 80020e2:	f7fe f897 	bl	8000214 <__adddf3>
 80020e6:	9b01      	ldr	r3, [sp, #4]
 80020e8:	4606      	mov	r6, r0
 80020ea:	460f      	mov	r7, r1
 80020ec:	b9eb      	cbnz	r3, 800212a <__kernel_sin+0xe2>
 80020ee:	4602      	mov	r2, r0
 80020f0:	460b      	mov	r3, r1
 80020f2:	4650      	mov	r0, sl
 80020f4:	4659      	mov	r1, fp
 80020f6:	f7fe fa43 	bl	8000580 <__aeabi_dmul>
 80020fa:	a325      	add	r3, pc, #148	; (adr r3, 8002190 <__kernel_sin+0x148>)
 80020fc:	e9d3 2300 	ldrd	r2, r3, [r3]
 8002100:	f7fe f886 	bl	8000210 <__aeabi_dsub>
 8002104:	4642      	mov	r2, r8
 8002106:	464b      	mov	r3, r9
 8002108:	f7fe fa3a 	bl	8000580 <__aeabi_dmul>
 800210c:	4602      	mov	r2, r0
 800210e:	460b      	mov	r3, r1
 8002110:	4620      	mov	r0, r4
 8002112:	4629      	mov	r1, r5
 8002114:	f7fe f87e 	bl	8000214 <__adddf3>
 8002118:	4604      	mov	r4, r0
 800211a:	460d      	mov	r5, r1
 800211c:	ec45 4b10 	vmov	d0, r4, r5
 8002120:	b003      	add	sp, #12
 8002122:	ecbd 8b04 	vpop	{d8-d9}
 8002126:	e8bd 8ff0 	ldmia.w	sp!, {r4, r5, r6, r7, r8, r9, sl, fp, pc}
 800212a:	4b1b      	ldr	r3, [pc, #108]	; (8002198 <__kernel_sin+0x150>)
 800212c:	ec51 0b18 	vmov	r0, r1, d8
 8002130:	2200      	movs	r2, #0
 8002132:	f7fe fa25 	bl	8000580 <__aeabi_dmul>
 8002136:	4632      	mov	r2, r6
 8002138:	ec41 0b19 	vmov	d9, r0, r1
 800213c:	463b      	mov	r3, r7
 800213e:	4640      	mov	r0, r8
 8002140:	4649      	mov	r1, r9
 8002142:	f7fe fa1d 	bl	8000580 <__aeabi_dmul>
 8002146:	4602      	mov	r2, r0
 8002148:	460b      	mov	r3, r1
 800214a:	ec51 0b19 	vmov	r0, r1, d9
 800214e:	f7fe f85f 	bl	8000210 <__aeabi_dsub>
 8002152:	4652      	mov	r2, sl
 8002154:	465b      	mov	r3, fp
 8002156:	f7fe fa13 	bl	8000580 <__aeabi_dmul>
 800215a:	ec53 2b18 	vmov	r2, r3, d8
 800215e:	f7fe f857 	bl	8000210 <__aeabi_dsub>
 8002162:	a30b      	add	r3, pc, #44	; (adr r3, 8002190 <__kernel_sin+0x148>)
 8002164:	e9d3 2300 	ldrd	r2, r3, [r3]
 8002168:	4606      	mov	r6, r0
 800216a:	460f      	mov	r7, r1
 800216c:	4640      	mov	r0, r8
 800216e:	4649      	mov	r1, r9
 8002170:	f7fe fa06 	bl	8000580 <__aeabi_dmul>
 8002174:	4602      	mov	r2, r0
 8002176:	460b      	mov	r3, r1
 8002178:	4630      	mov	r0, r6
 800217a:	4639      	mov	r1, r7
 800217c:	f7fe f84a 	bl	8000214 <__adddf3>
 8002180:	4602      	mov	r2, r0
 8002182:	460b      	mov	r3, r1
 8002184:	4620      	mov	r0, r4
 8002186:	4629      	mov	r1, r5
 8002188:	f7fe f842 	bl	8000210 <__aeabi_dsub>
 800218c:	e7c4      	b.n	8002118 <__kernel_sin+0xd0>
 800218e:	bf00      	nop
 8002190:	55555549 	.word	0x55555549
 8002194:	3fc55555 	.word	0x3fc55555
 8002198:	3fe00000 	.word	0x3fe00000
 800219c:	5acfd57c 	.word	0x5acfd57c
 80021a0:	3de5d93a 	.word	0x3de5d93a
 80021a4:	8a2b9ceb 	.word	0x8a2b9ceb
 80021a8:	3e5ae5e6 	.word	0x3e5ae5e6
 80021ac:	57b1fe7d 	.word	0x57b1fe7d
 80021b0:	3ec71de3 	.word	0x3ec71de3
 80021b4:	19c161d5 	.word	0x19c161d5
 80021b8:	3f2a01a0 	.word	0x3f2a01a0
 80021bc:	1110f8a6 	.word	0x1110f8a6
 80021c0:	3f811111 	.word	0x3f811111

080021c4 <fabs>:
 80021c4:	ec51 0b10 	vmov	r0, r1, d0
 80021c8:	ee10 2a10 	vmov	r2, s0
 80021cc:	f021 4300 	bic.w	r3, r1, #2147483648	; 0x80000000
 80021d0:	ec43 2b10 	vmov	d0, r2, r3
 80021d4:	4770      	bx	lr
	...

080021d8 <floor>:
 80021d8:	ec51 0b10 	vmov	r0, r1, d0
 80021dc:	e92d 41f0 	stmdb	sp!, {r4, r5, r6, r7, r8, lr}
 80021e0:	f3c1 570a 	ubfx	r7, r1, #20, #11
 80021e4:	f2a7 36ff 	subw	r6, r7, #1023	; 0x3ff
 80021e8:	2e13      	cmp	r6, #19
 80021ea:	ee10 5a10 	vmov	r5, s0
 80021ee:	ee10 8a10 	vmov	r8, s0
 80021f2:	460c      	mov	r4, r1
 80021f4:	dc32      	bgt.n	800225c <floor+0x84>
 80021f6:	2e00      	cmp	r6, #0
 80021f8:	da14      	bge.n	8002224 <floor+0x4c>
 80021fa:	a333      	add	r3, pc, #204	; (adr r3, 80022c8 <floor+0xf0>)
 80021fc:	e9d3 2300 	ldrd	r2, r3, [r3]
 8002200:	f7fe f808 	bl	8000214 <__adddf3>
 8002204:	2200      	movs	r2, #0
 8002206:	2300      	movs	r3, #0
 8002208:	f7fe fc4a 	bl	8000aa0 <__aeabi_dcmpgt>
 800220c:	b138      	cbz	r0, 800221e <floor+0x46>
 800220e:	2c00      	cmp	r4, #0
 8002210:	da57      	bge.n	80022c2 <floor+0xea>
 8002212:	f024 4300 	bic.w	r3, r4, #2147483648	; 0x80000000
 8002216:	431d      	orrs	r5, r3
 8002218:	d001      	beq.n	800221e <floor+0x46>
 800221a:	4c2d      	ldr	r4, [pc, #180]	; (80022d0 <floor+0xf8>)
 800221c:	2500      	movs	r5, #0
 800221e:	4621      	mov	r1, r4
 8002220:	4628      	mov	r0, r5
 8002222:	e025      	b.n	8002270 <floor+0x98>
 8002224:	4f2b      	ldr	r7, [pc, #172]	; (80022d4 <floor+0xfc>)
 8002226:	4137      	asrs	r7, r6
 8002228:	ea01 0307 	and.w	r3, r1, r7
 800222c:	4303      	orrs	r3, r0
 800222e:	d01f      	beq.n	8002270 <floor+0x98>
 8002230:	a325      	add	r3, pc, #148	; (adr r3, 80022c8 <floor+0xf0>)
 8002232:	e9d3 2300 	ldrd	r2, r3, [r3]
 8002236:	f7fd ffed 	bl	8000214 <__adddf3>
 800223a:	2200      	movs	r2, #0
 800223c:	2300      	movs	r3, #0
 800223e:	f7fe fc2f 	bl	8000aa0 <__aeabi_dcmpgt>
 8002242:	2800      	cmp	r0, #0
 8002244:	d0eb      	beq.n	800221e <floor+0x46>
 8002246:	2c00      	cmp	r4, #0
 8002248:	bfbe      	ittt	lt
 800224a:	f44f 1380 	movlt.w	r3, #1048576	; 0x100000
 800224e:	fa43 f606 	asrlt.w	r6, r3, r6
 8002252:	19a4      	addlt	r4, r4, r6
 8002254:	ea24 0407 	bic.w	r4, r4, r7
 8002258:	2500      	movs	r5, #0
 800225a:	e7e0      	b.n	800221e <floor+0x46>
 800225c:	2e33      	cmp	r6, #51	; 0x33
 800225e:	dd0b      	ble.n	8002278 <floor+0xa0>
 8002260:	f5b6 6f80 	cmp.w	r6, #1024	; 0x400
 8002264:	d104      	bne.n	8002270 <floor+0x98>
 8002266:	ee10 2a10 	vmov	r2, s0
 800226a:	460b      	mov	r3, r1
 800226c:	f7fd ffd2 	bl	8000214 <__adddf3>
 8002270:	ec41 0b10 	vmov	d0, r0, r1
 8002274:	e8bd 81f0 	ldmia.w	sp!, {r4, r5, r6, r7, r8, pc}
 8002278:	f2a7 4713 	subw	r7, r7, #1043	; 0x413
 800227c:	f04f 33ff 	mov.w	r3, #4294967295
 8002280:	fa23 f707 	lsr.w	r7, r3, r7
 8002284:	4207      	tst	r7, r0
 8002286:	d0f3      	beq.n	8002270 <floor+0x98>
 8002288:	a30f      	add	r3, pc, #60	; (adr r3, 80022c8 <floor+0xf0>)
 800228a:	e9d3 2300 	ldrd	r2, r3, [r3]
 800228e:	f7fd ffc1 	bl	8000214 <__adddf3>
 8002292:	2200      	movs	r2, #0
 8002294:	2300      	movs	r3, #0
 8002296:	f7fe fc03 	bl	8000aa0 <__aeabi_dcmpgt>
 800229a:	2800      	cmp	r0, #0
 800229c:	d0bf      	beq.n	800221e <floor+0x46>
 800229e:	2c00      	cmp	r4, #0
 80022a0:	da02      	bge.n	80022a8 <floor+0xd0>
 80022a2:	2e14      	cmp	r6, #20
 80022a4:	d103      	bne.n	80022ae <floor+0xd6>
 80022a6:	3401      	adds	r4, #1
 80022a8:	ea25 0507 	bic.w	r5, r5, r7
 80022ac:	e7b7      	b.n	800221e <floor+0x46>
 80022ae:	2301      	movs	r3, #1
 80022b0:	f1c6 0634 	rsb	r6, r6, #52	; 0x34
 80022b4:	fa03 f606 	lsl.w	r6, r3, r6
 80022b8:	4435      	add	r5, r6
 80022ba:	4545      	cmp	r5, r8
 80022bc:	bf38      	it	cc
 80022be:	18e4      	addcc	r4, r4, r3
 80022c0:	e7f2      	b.n	80022a8 <floor+0xd0>
 80022c2:	2500      	movs	r5, #0
 80022c4:	462c      	mov	r4, r5
 80022c6:	e7aa      	b.n	800221e <floor+0x46>
 80022c8:	8800759c 	.word	0x8800759c
 80022cc:	7e37e43c 	.word	0x7e37e43c
 80022d0:	bff00000 	.word	0xbff00000
 80022d4:	000fffff 	.word	0x000fffff

080022d8 <scalbn>:
 80022d8:	b570      	push	{r4, r5, r6, lr}
 80022da:	ec55 4b10 	vmov	r4, r5, d0
 80022de:	f3c5 520a 	ubfx	r2, r5, #20, #11
 80022e2:	4606      	mov	r6, r0
 80022e4:	462b      	mov	r3, r5
 80022e6:	b99a      	cbnz	r2, 8002310 <scalbn+0x38>
 80022e8:	f025 4300 	bic.w	r3, r5, #2147483648	; 0x80000000
 80022ec:	4323      	orrs	r3, r4
 80022ee:	d036      	beq.n	800235e <scalbn+0x86>
 80022f0:	4b39      	ldr	r3, [pc, #228]	; (80023d8 <scalbn+0x100>)
 80022f2:	4629      	mov	r1, r5
 80022f4:	ee10 0a10 	vmov	r0, s0
 80022f8:	2200      	movs	r2, #0
 80022fa:	f7fe f941 	bl	8000580 <__aeabi_dmul>
 80022fe:	4b37      	ldr	r3, [pc, #220]	; (80023dc <scalbn+0x104>)
 8002300:	429e      	cmp	r6, r3
 8002302:	4604      	mov	r4, r0
 8002304:	460d      	mov	r5, r1
 8002306:	da10      	bge.n	800232a <scalbn+0x52>
 8002308:	a32b      	add	r3, pc, #172	; (adr r3, 80023b8 <scalbn+0xe0>)
 800230a:	e9d3 2300 	ldrd	r2, r3, [r3]
 800230e:	e03a      	b.n	8002386 <scalbn+0xae>
 8002310:	f240 71ff 	movw	r1, #2047	; 0x7ff
 8002314:	428a      	cmp	r2, r1
 8002316:	d10c      	bne.n	8002332 <scalbn+0x5a>
 8002318:	ee10 2a10 	vmov	r2, s0
 800231c:	4620      	mov	r0, r4
 800231e:	4629      	mov	r1, r5
 8002320:	f7fd ff78 	bl	8000214 <__adddf3>
 8002324:	4604      	mov	r4, r0
 8002326:	460d      	mov	r5, r1
 8002328:	e019      	b.n	800235e <scalbn+0x86>
 800232a:	f3c1 520a 	ubfx	r2, r1, #20, #11
 800232e:	460b      	mov	r3, r1
 8002330:	3a36      	subs	r2, #54	; 0x36
 8002332:	4432      	add	r2, r6
 8002334:	f240 71fe 	movw	r1, #2046	; 0x7fe
 8002338:	428a      	cmp	r2, r1
 800233a:	dd08      	ble.n	800234e <scalbn+0x76>
 800233c:	2d00      	cmp	r5, #0
 800233e:	a120      	add	r1, pc, #128	; (adr r1, 80023c0 <scalbn+0xe8>)
 8002340:	e9d1 0100 	ldrd	r0, r1, [r1]
 8002344:	da1c      	bge.n	8002380 <scalbn+0xa8>
 8002346:	a120      	add	r1, pc, #128	; (adr r1, 80023c8 <scalbn+0xf0>)
 8002348:	e9d1 0100 	ldrd	r0, r1, [r1]
 800234c:	e018      	b.n	8002380 <scalbn+0xa8>
 800234e:	2a00      	cmp	r2, #0
 8002350:	dd08      	ble.n	8002364 <scalbn+0x8c>
 8002352:	f023 43ff 	bic.w	r3, r3, #2139095040	; 0x7f800000
 8002356:	f423 03e0 	bic.w	r3, r3, #7340032	; 0x700000
 800235a:	ea43 5502 	orr.w	r5, r3, r2, lsl #20
 800235e:	ec45 4b10 	vmov	d0, r4, r5
 8002362:	bd70      	pop	{r4, r5, r6, pc}
 8002364:	f112 0f35 	cmn.w	r2, #53	; 0x35
 8002368:	da19      	bge.n	800239e <scalbn+0xc6>
 800236a:	f24c 3350 	movw	r3, #50000	; 0xc350
 800236e:	429e      	cmp	r6, r3
 8002370:	f005 4300 	and.w	r3, r5, #2147483648	; 0x80000000
 8002374:	dd0a      	ble.n	800238c <scalbn+0xb4>
 8002376:	a112      	add	r1, pc, #72	; (adr r1, 80023c0 <scalbn+0xe8>)
 8002378:	e9d1 0100 	ldrd	r0, r1, [r1]
 800237c:	2b00      	cmp	r3, #0
 800237e:	d1e2      	bne.n	8002346 <scalbn+0x6e>
 8002380:	a30f      	add	r3, pc, #60	; (adr r3, 80023c0 <scalbn+0xe8>)
 8002382:	e9d3 2300 	ldrd	r2, r3, [r3]
 8002386:	f7fe f8fb 	bl	8000580 <__aeabi_dmul>
 800238a:	e7cb      	b.n	8002324 <scalbn+0x4c>
 800238c:	a10a      	add	r1, pc, #40	; (adr r1, 80023b8 <scalbn+0xe0>)
 800238e:	e9d1 0100 	ldrd	r0, r1, [r1]
 8002392:	2b00      	cmp	r3, #0
 8002394:	d0b8      	beq.n	8002308 <scalbn+0x30>
 8002396:	a10e      	add	r1, pc, #56	; (adr r1, 80023d0 <scalbn+0xf8>)
 8002398:	e9d1 0100 	ldrd	r0, r1, [r1]
 800239c:	e7b4      	b.n	8002308 <scalbn+0x30>
 800239e:	f023 43ff 	bic.w	r3, r3, #2139095040	; 0x7f800000
 80023a2:	3236      	adds	r2, #54	; 0x36
 80023a4:	f423 03e0 	bic.w	r3, r3, #7340032	; 0x700000
 80023a8:	ea43 5102 	orr.w	r1, r3, r2, lsl #20
 80023ac:	4620      	mov	r0, r4
 80023ae:	4b0c      	ldr	r3, [pc, #48]	; (80023e0 <scalbn+0x108>)
 80023b0:	2200      	movs	r2, #0
 80023b2:	e7e8      	b.n	8002386 <scalbn+0xae>
 80023b4:	f3af 8000 	nop.w
 80023b8:	c2f8f359 	.word	0xc2f8f359
 80023bc:	01a56e1f 	.word	0x01a56e1f
 80023c0:	8800759c 	.word	0x8800759c
 80023c4:	7e37e43c 	.word	0x7e37e43c
 80023c8:	8800759c 	.word	0x8800759c
 80023cc:	fe37e43c 	.word	0xfe37e43c
 80023d0:	c2f8f359 	.word	0xc2f8f359
 80023d4:	81a56e1f 	.word	0x81a56e1f
 80023d8:	43500000 	.word	0x43500000
 80023dc:	ffff3cb0 	.word	0xffff3cb0
 80023e0:	3c900000 	.word	0x3c900000

080023e4 <_init>:
 80023e4:	b5f8      	push	{r3, r4, r5, r6, r7, lr}
 80023e6:	bf00      	nop
 80023e8:	bcf8      	pop	{r3, r4, r5, r6, r7}
 80023ea:	bc08      	pop	{r3}
 80023ec:	469e      	mov	lr, r3
 80023ee:	4770      	bx	lr

080023f0 <_fini>:
 80023f0:	b5f8      	push	{r3, r4, r5, r6, r7, lr}
 80023f2:	bf00      	nop
 80023f4:	bcf8      	pop	{r3, r4, r5, r6, r7}
 80023f6:	bc08      	pop	{r3}
 80023f8:	469e      	mov	lr, r3
 80023fa:	4770      	bx	lr
